
build/bbl:     file format elf64-littleriscv


Disassembly of section .text:

0000000080000000 <_ftext>:
    80000000:	2000006f          	j	80000200 <do_reset>

0000000080000004 <trap_vector>:
    80000004:	34011173          	csrrw	sp,mscratch,sp
    80000008:	1a010c63          	beqz	sp,800001c0 <restore_regs+0x80>
    8000000c:	04a13823          	sd	a0,80(sp)
    80000010:	04b13c23          	sd	a1,88(sp)
    80000014:	342025f3          	csrr	a1,mcause
    80000018:	0805d263          	bgez	a1,8000009c <trap_vector+0x98>
    8000001c:	00159593          	slli	a1,a1,0x1
    80000020:	00e00513          	li	a0,14
    80000024:	02b51263          	bne	a0,a1,80000048 <trap_vector+0x44>
    80000028:	08000513          	li	a0,128
    8000002c:	30453073          	csrc	mie,a0
    80000030:	02000513          	li	a0,32
    80000034:	34452073          	csrs	mip,a0
    80000038:	05013503          	ld	a0,80(sp)
    8000003c:	05813583          	ld	a1,88(sp)
    80000040:	34011173          	csrrw	sp,mscratch,sp
    80000044:	30200073          	mret
    80000048:	00600513          	li	a0,6
    8000004c:	18b51663          	bne	a0,a1,800001d8 <restore_regs+0x98>
    80000050:	20013503          	ld	a0,512(sp)
    80000054:	00052023          	sw	zero,0(a0)
    80000058:	0ff0000f          	fence
    8000005c:	20810513          	addi	a0,sp,520
    80000060:	0805252f          	amoswap.w	a0,zero,(a0)
    80000064:	00157593          	andi	a1,a0,1
    80000068:	00058463          	beqz	a1,80000070 <trap_vector+0x6c>
    8000006c:	34416073          	csrsi	mip,2
    80000070:	00257593          	andi	a1,a0,2
    80000074:	00058463          	beqz	a1,8000007c <trap_vector+0x78>
    80000078:	0000100f          	fence.i
    8000007c:	00457593          	andi	a1,a0,4
    80000080:	00058463          	beqz	a1,80000088 <trap_vector+0x84>
    80000084:	12000073          	sfence.vma
    80000088:	00857593          	andi	a1,a0,8
    8000008c:	00058663          	beqz	a1,80000098 <trap_vector+0x94>
    80000090:	10500073          	wfi
    80000094:	ff5ff06f          	j	80000088 <trap_vector+0x84>
    80000098:	fa1ff06f          	j	80000038 <trap_vector+0x34>
    8000009c:	00113423          	sd	ra,8(sp)
    800000a0:	00313c23          	sd	gp,24(sp)
    800000a4:	02413023          	sd	tp,32(sp)
    800000a8:	02513423          	sd	t0,40(sp)
    800000ac:	00009297          	auipc	t0,0x9
    800000b0:	02613823          	sd	t1,48(sp)
    800000b4:	00359313          	slli	t1,a1,0x3
    800000b8:	02713c23          	sd	t2,56(sp)
    800000bc:	00628333          	add	t1,t0,t1
    800000c0:	04813023          	sd	s0,64(sp)
    800000c4:	f5433303          	ld	t1,-172(t1)
    800000c8:	04913423          	sd	s1,72(sp)
    800000cc:	00010513          	mv	a0,sp
    800000d0:	06c13023          	sd	a2,96(sp)
    800000d4:	34102673          	csrr	a2,mepc
    800000d8:	06d13423          	sd	a3,104(sp)
    800000dc:	340012f3          	csrrw	t0,mscratch,zero
    800000e0:	06e13823          	sd	a4,112(sp)
    800000e4:	06f13c23          	sd	a5,120(sp)
    800000e8:	09013023          	sd	a6,128(sp)
    800000ec:	09113423          	sd	a7,136(sp)
    800000f0:	09213823          	sd	s2,144(sp)
    800000f4:	09313c23          	sd	s3,152(sp)
    800000f8:	0b413023          	sd	s4,160(sp)
    800000fc:	0b513423          	sd	s5,168(sp)
    80000100:	0b613823          	sd	s6,176(sp)
    80000104:	0b713c23          	sd	s7,184(sp)
    80000108:	0d813023          	sd	s8,192(sp)
    8000010c:	0d913423          	sd	s9,200(sp)
    80000110:	0da13823          	sd	s10,208(sp)
    80000114:	0db13c23          	sd	s11,216(sp)
    80000118:	0fc13023          	sd	t3,224(sp)
    8000011c:	0fd13423          	sd	t4,232(sp)
    80000120:	0fe13823          	sd	t5,240(sp)
    80000124:	0ff13c23          	sd	t6,248(sp)
    80000128:	00513823          	sd	t0,16(sp)
    8000012c:	00012203          	lw	tp,0(sp)
    80000130:	00013023          	sd	zero,0(sp)
    80000134:	000300e7          	jalr	t1
    80000138:	00412023          	sw	tp,0(sp)

000000008000013c <restore_mscratch>:
    8000013c:	34011073          	csrw	mscratch,sp

0000000080000140 <restore_regs>:
    80000140:	00813083          	ld	ra,8(sp)
    80000144:	01813183          	ld	gp,24(sp)
    80000148:	02013203          	ld	tp,32(sp)
    8000014c:	02813283          	ld	t0,40(sp)
    80000150:	03013303          	ld	t1,48(sp)
    80000154:	03813383          	ld	t2,56(sp)
    80000158:	04013403          	ld	s0,64(sp)
    8000015c:	04813483          	ld	s1,72(sp)
    80000160:	05013503          	ld	a0,80(sp)
    80000164:	05813583          	ld	a1,88(sp)
    80000168:	06013603          	ld	a2,96(sp)
    8000016c:	06813683          	ld	a3,104(sp)
    80000170:	07013703          	ld	a4,112(sp)
    80000174:	07813783          	ld	a5,120(sp)
    80000178:	08013803          	ld	a6,128(sp)
    8000017c:	08813883          	ld	a7,136(sp)
    80000180:	09013903          	ld	s2,144(sp)
    80000184:	09813983          	ld	s3,152(sp)
    80000188:	0a013a03          	ld	s4,160(sp)
    8000018c:	0a813a83          	ld	s5,168(sp)
    80000190:	0b013b03          	ld	s6,176(sp)
    80000194:	0b813b83          	ld	s7,184(sp)
    80000198:	0c013c03          	ld	s8,192(sp)
    8000019c:	0c813c83          	ld	s9,200(sp)
    800001a0:	0d013d03          	ld	s10,208(sp)
    800001a4:	0d813d83          	ld	s11,216(sp)
    800001a8:	0e013e03          	ld	t3,224(sp)
    800001ac:	0e813e83          	ld	t4,232(sp)
    800001b0:	0f013f03          	ld	t5,240(sp)
    800001b4:	0f813f83          	ld	t6,248(sp)
    800001b8:	01013103          	ld	sp,16(sp)
    800001bc:	30200073          	mret
    800001c0:	34002173          	csrr	sp,mscratch
    800001c4:	f0010113          	addi	sp,sp,-256
    800001c8:	04a13823          	sd	a0,80(sp)
    800001cc:	04b13c23          	sd	a1,88(sp)
    800001d0:	00d00593          	li	a1,13
    800001d4:	ec9ff06f          	j	8000009c <trap_vector+0x98>
    800001d8:	00000593          	li	a1,0
    800001dc:	ec1ff06f          	j	8000009c <trap_vector+0x98>

00000000800001e0 <__redirect_trap>:
    800001e0:	000012b7          	lui	t0,0x1
    800001e4:	00510133          	add	sp,sp,t0
    800001e8:	405002b3          	neg	t0,t0
    800001ec:	00517133          	and	sp,sp,t0
    800001f0:	dc010113          	addi	sp,sp,-576
    800001f4:	f49ff06f          	j	8000013c <restore_mscratch>

00000000800001f8 <__trap_from_machine_mode>:
    800001f8:	373010ef          	jal	ra,80001d6a <trap_from_machine_mode>
    800001fc:	f45ff06f          	j	80000140 <restore_regs>

0000000080000200 <do_reset>:
    80000200:	00000093          	li	ra,0
    80000204:	00000113          	li	sp,0
    80000208:	00000193          	li	gp,0
    8000020c:	00000213          	li	tp,0
    80000210:	00000293          	li	t0,0
    80000214:	00000313          	li	t1,0
    80000218:	00000393          	li	t2,0
    8000021c:	00000413          	li	s0,0
    80000220:	00000493          	li	s1,0
    80000224:	00000613          	li	a2,0
    80000228:	00000693          	li	a3,0
    8000022c:	00000713          	li	a4,0
    80000230:	00000793          	li	a5,0
    80000234:	00000813          	li	a6,0
    80000238:	00000893          	li	a7,0
    8000023c:	00000913          	li	s2,0
    80000240:	00000993          	li	s3,0
    80000244:	00000a13          	li	s4,0
    80000248:	00000a93          	li	s5,0
    8000024c:	00000b13          	li	s6,0
    80000250:	00000b93          	li	s7,0
    80000254:	00000c13          	li	s8,0
    80000258:	00000c93          	li	s9,0
    8000025c:	00000d13          	li	s10,0
    80000260:	00000d93          	li	s11,0
    80000264:	00000e13          	li	t3,0
    80000268:	00000e93          	li	t4,0
    8000026c:	00000f13          	li	t5,0
    80000270:	00000f93          	li	t6,0
    80000274:	34001073          	csrw	mscratch,zero
    80000278:	00000297          	auipc	t0,0x0
    8000027c:	d8c28293          	addi	t0,t0,-628 # 80000004 <trap_vector>
    80000280:	30529073          	csrw	mtvec,t0
    80000284:	30502373          	csrr	t1,mtvec
    80000288:	00629063          	bne	t0,t1,80000288 <do_reset+0x88>
    8000028c:	0000c117          	auipc	sp,0xc
    80000290:	b3410113          	addi	sp,sp,-1228 # 8000bdc0 <stacks+0xdc0>
    80000294:	f14026f3          	csrr	a3,mhartid
    80000298:	00c69613          	slli	a2,a3,0xc
    8000029c:	00c10133          	add	sp,sp,a2
    800002a0:	00069463          	bnez	a3,800002a8 <do_reset+0xa8>
    800002a4:	5d50106f          	j	80002078 <init_first_hart>
    800002a8:	00800613          	li	a2,8
    800002ac:	30461073          	csrw	mie,a2
    800002b0:	10500073          	wfi
    800002b4:	00013717          	auipc	a4,0x13
    800002b8:	d6c70713          	addi	a4,a4,-660 # 80013020 <disabled_hart_mask>
    800002bc:	00073703          	ld	a4,0(a4)
    800002c0:	00d75733          	srl	a4,a4,a3
    800002c4:	00177713          	andi	a4,a4,1
    800002c8:	fe0714e3          	bnez	a4,800002b0 <do_reset+0xb0>
    800002cc:	34402673          	csrr	a2,mip
    800002d0:	00867613          	andi	a2,a2,8
    800002d4:	fc060ee3          	beqz	a2,800002b0 <do_reset+0xb0>
    800002d8:	0ff0000f          	fence
    800002dc:	00800613          	li	a2,8
    800002e0:	00c6f463          	bgeu	a3,a2,800002e8 <do_reset+0xe8>
    800002e4:	6c70106f          	j	800021aa <init_other_hart>
    800002e8:	10500073          	wfi
    800002ec:	fc5ff06f          	j	800002b0 <do_reset+0xb0>

00000000800002f0 <boot_other_hart>:
    800002f0:	1101                	addi	sp,sp,-32
    800002f2:	ec06                	sd	ra,24(sp)
    800002f4:	e822                	sd	s0,16(sp)
    800002f6:	e426                	sd	s1,8(sp)
    800002f8:	00013797          	auipc	a5,0x13
    800002fc:	d0878793          	addi	a5,a5,-760 # 80013000 <entry_point>
    80000300:	6380                	ld	s0,0(a5)
    80000302:	0ff0000f          	fence
    80000306:	dc6d                	beqz	s0,80000300 <boot_other_hart+0x10>
    80000308:	f14024f3          	csrr	s1,mhartid
    8000030c:	4705                	li	a4,1
    8000030e:	0097173b          	sllw	a4,a4,s1
    80000312:	00013797          	auipc	a5,0x13
    80000316:	d0e7b783          	ld	a5,-754(a5) # 80013020 <disabled_hart_mask>
    8000031a:	8f7d                	and	a4,a4,a5
    8000031c:	c711                	beqz	a4,80000328 <boot_other_hart+0x38>
    8000031e:	10500073          	wfi
    80000322:	02004033          	div	zero,zero,zero
    80000326:	bfe5                	j	8000031e <boot_other_hart+0x2e>
    80000328:	56fd                	li	a3,-1
    8000032a:	87ba                	mv	a5,a4
    8000032c:	88ba                	mv	a7,a4
    8000032e:	883a                	mv	a6,a4
    80000330:	863a                	mv	a2,a4
    80000332:	00000317          	auipc	t1,0x0
    80000336:	02e30313          	addi	t1,t1,46 # 80000360 <boot_other_hart+0x70>
    8000033a:	30531373          	csrrw	t1,mtvec,t1
    8000033e:	3b069073          	csrw	pmpaddr0,a3
    80000342:	3b0027f3          	csrr	a5,pmpaddr0
    80000346:	3b169073          	csrw	pmpaddr1,a3
    8000034a:	3b1028f3          	csrr	a7,pmpaddr1
    8000034e:	3b269073          	csrw	pmpaddr2,a3
    80000352:	3b202873          	csrr	a6,pmpaddr2
    80000356:	3b369073          	csrw	pmpaddr3,a3
    8000035a:	3b302673          	csrr	a2,pmpaddr3
    8000035e:	0001                	nop
    80000360:	30531073          	csrw	mtvec,t1
    80000364:	0117f7b3          	and	a5,a5,a7
    80000368:	0107f7b3          	and	a5,a5,a6
    8000036c:	8ff1                	and	a5,a5,a2
    8000036e:	cba9                	beqz	a5,800003c0 <boot_other_hart+0xd0>
    80000370:	00000797          	auipc	a5,0x0
    80000374:	c9078793          	addi	a5,a5,-880 # 80000000 <_ftext>
    80000378:	00014617          	auipc	a2,0x14
    8000037c:	c8860613          	addi	a2,a2,-888 # 80014000 <_end>
    80000380:	001f1837          	lui	a6,0x1f1
    80000384:	8389                	srli	a5,a5,0x2
    80000386:	8209                	srli	a2,a2,0x2
    80000388:	80080813          	addi	a6,a6,-2048 # 1f0800 <MEM_START-0x7fe0f800>
    8000038c:	3b079073          	csrw	pmpaddr0,a5
    80000390:	3b161073          	csrw	pmpaddr1,a2
    80000394:	3b269073          	csrw	pmpaddr2,a3
    80000398:	3b371073          	csrw	pmpaddr3,a4
    8000039c:	3a081073          	csrw	pmpcfg0,a6
    800003a0:	00013797          	auipc	a5,0x13
    800003a4:	ca87b783          	ld	a5,-856(a5) # 80013048 <kernel_end>
    800003a8:	cf99                	beqz	a5,800003c6 <boot_other_hart+0xd6>
    800003aa:	00200737          	lui	a4,0x200
    800003ae:	177d                	addi	a4,a4,-1
    800003b0:	97ba                	add	a5,a5,a4
    800003b2:	ffe00637          	lui	a2,0xffe00
    800003b6:	8e7d                	and	a2,a2,a5
    800003b8:	85a6                	mv	a1,s1
    800003ba:	8522                	mv	a0,s0
    800003bc:	62b010ef          	jal	ra,800021e6 <enter_supervisor_mode>
    800003c0:	607010ef          	jal	ra,800021c6 <setup_pmp>
    800003c4:	bff1                	j	800003a0 <boot_other_hart+0xb0>
    800003c6:	003d8797          	auipc	a5,0x3d8
    800003ca:	9de78793          	addi	a5,a5,-1570 # 803d7da4 <_payload_end>
    800003ce:	bff1                	j	800003aa <boot_other_hart+0xba>

00000000800003d0 <boot_loader>:
    800003d0:	1101                	addi	sp,sp,-32
    800003d2:	e822                	sd	s0,16(sp)
    800003d4:	e426                	sd	s1,8(sp)
    800003d6:	00013797          	auipc	a5,0x13
    800003da:	c727b783          	ld	a5,-910(a5) # 80013048 <kernel_end>
    800003de:	ec06                	sd	ra,24(sp)
    800003e0:	84aa                	mv	s1,a0
    800003e2:	843e                	mv	s0,a5
    800003e4:	cbb5                	beqz	a5,80000458 <boot_loader+0x88>
    800003e6:	002007b7          	lui	a5,0x200
    800003ea:	17fd                	addi	a5,a5,-1
    800003ec:	943e                	add	s0,s0,a5
    800003ee:	8526                	mv	a0,s1
    800003f0:	ffe007b7          	lui	a5,0xffe00
    800003f4:	8c7d                	and	s0,s0,a5
    800003f6:	7e3000ef          	jal	ra,800013d8 <fdt_size>
    800003fa:	02051613          	slli	a2,a0,0x20
    800003fe:	9201                	srli	a2,a2,0x20
    80000400:	85a6                	mv	a1,s1
    80000402:	8522                	mv	a0,s0
    80000404:	004060ef          	jal	ra,80006408 <memcpy>
    80000408:	00013597          	auipc	a1,0x13
    8000040c:	c1858593          	addi	a1,a1,-1000 # 80013020 <disabled_hart_mask>
    80000410:	8522                	mv	a0,s0
    80000412:	696010ef          	jal	ra,80001aa8 <filter_harts>
    80000416:	8522                	mv	a0,s0
    80000418:	5ce010ef          	jal	ra,800019e6 <filter_plic>
    8000041c:	8522                	mv	a0,s0
    8000041e:	00007597          	auipc	a1,0x7
    80000422:	8b258593          	addi	a1,a1,-1870 # 80006cd0 <softfloat_countLeadingZeros8+0x158>
    80000426:	5f6010ef          	jal	ra,80001a1c <filter_compat>
    8000042a:	00007597          	auipc	a1,0x7
    8000042e:	8b658593          	addi	a1,a1,-1866 # 80006ce0 <softfloat_countLeadingZeros8+0x168>
    80000432:	8522                	mv	a0,s0
    80000434:	5e8010ef          	jal	ra,80001a1c <filter_compat>
    80000438:	034000ef          	jal	ra,8000046c <print_logo>
    8000043c:	0ff0000f          	fence
    80000440:	00013797          	auipc	a5,0x13
    80000444:	c207b783          	ld	a5,-992(a5) # 80013060 <kernel_start>
    80000448:	cf89                	beqz	a5,80000462 <boot_loader+0x92>
    8000044a:	4501                	li	a0,0
    8000044c:	00013717          	auipc	a4,0x13
    80000450:	baf73a23          	sd	a5,-1100(a4) # 80013000 <entry_point>
    80000454:	e9dff0ef          	jal	ra,800002f0 <boot_other_hart>
    80000458:	003d8417          	auipc	s0,0x3d8
    8000045c:	94c40413          	addi	s0,s0,-1716 # 803d7da4 <_payload_end>
    80000460:	b759                	j	800003e6 <boot_loader+0x16>
    80000462:	00200797          	auipc	a5,0x200
    80000466:	b9e78793          	addi	a5,a5,-1122 # 80200000 <_payload_start>
    8000046a:	b7c5                	j	8000044a <boot_loader+0x7a>

000000008000046c <print_logo>:
    8000046c:	00006517          	auipc	a0,0x6
    80000470:	0ec50513          	addi	a0,a0,236 # 80006558 <logo>
    80000474:	7d60106f          	j	80001c4a <putstring>

0000000080000478 <hart_open>:
    80000478:	619c                	ld	a5,0(a1)
    8000047a:	c799                	beqz	a5,80000488 <hart_open+0x10>
    8000047c:	699c                	ld	a5,16(a1)
    8000047e:	c391                	beqz	a5,80000482 <hart_open+0xa>
    80000480:	8082                	ret
    80000482:	0005bc23          	sd	zero,24(a1)
    80000486:	8082                	ret
    80000488:	57fd                	li	a5,-1
    8000048a:	c59c                	sw	a5,8(a1)
    8000048c:	bfc5                	j	8000047c <hart_open+0x4>

000000008000048e <hart_close>:
    8000048e:	619c                	ld	a5,0(a1)
    80000490:	00a78763          	beq	a5,a0,8000049e <hart_close+0x10>
    80000494:	699c                	ld	a5,16(a1)
    80000496:	00a78963          	beq	a5,a0,800004a8 <hart_close+0x1a>
    8000049a:	4501                	li	a0,0
    8000049c:	8082                	ret
    8000049e:	699c                	ld	a5,16(a1)
    800004a0:	0005b023          	sd	zero,0(a1)
    800004a4:	fea79be3          	bne	a5,a0,8000049a <hart_close+0xc>
    800004a8:	0005b823          	sd	zero,16(a1)
    800004ac:	4501                	li	a0,0
    800004ae:	8082                	ret

00000000800004b0 <clint_open>:
    800004b0:	0005a023          	sw	zero,0(a1)
    800004b4:	0005b423          	sd	zero,8(a1)
    800004b8:	0005b823          	sd	zero,16(a1)
    800004bc:	0205a023          	sw	zero,32(a1)
    800004c0:	8082                	ret

00000000800004c2 <plic_open>:
    800004c2:	0005a023          	sw	zero,0(a1)
    800004c6:	0005b423          	sd	zero,8(a1)
    800004ca:	0005b823          	sd	zero,16(a1)
    800004ce:	8082                	ret

00000000800004d0 <plic_redact>:
    800004d0:	419c                	lw	a5,0(a1)
    800004d2:	c3ad                	beqz	a5,80000534 <plic_redact+0x64>
    800004d4:	4d9c                	lw	a5,24(a1)
    800004d6:	4705                	li	a4,1
    800004d8:	cdd8                	sw	a4,28(a1)
    800004da:	41f7d61b          	sraiw	a2,a5,0x1f
    800004de:	01e6561b          	srliw	a2,a2,0x1e
    800004e2:	9e3d                	addw	a2,a2,a5
    800004e4:	4026561b          	sraiw	a2,a2,0x2
    800004e8:	060a                	slli	a2,a2,0x2
    800004ea:	6994                	ld	a3,16(a1)
    800004ec:	04c05463          	blez	a2,80000534 <plic_redact+0x64>
    800004f0:	ff010537          	lui	a0,0xff010
    800004f4:	00ff05b7          	lui	a1,0xff0
    800004f8:	9636                	add	a2,a2,a3
    800004fa:	f0050513          	addi	a0,a0,-256 # ffffffffff00ff00 <_payload_end+0xffffffff7ec3815c>
    800004fe:	0ff58593          	addi	a1,a1,255 # ff00ff <MEM_START-0x7f00ff01>
    80000502:	482d                	li	a6,11
    80000504:	58fd                	li	a7,-1
    80000506:	42d8                	lw	a4,4(a3)
    80000508:	0087179b          	slliw	a5,a4,0x8
    8000050c:	0087571b          	srliw	a4,a4,0x8
    80000510:	8f6d                	and	a4,a4,a1
    80000512:	8fe9                	and	a5,a5,a0
    80000514:	8fd9                	or	a5,a5,a4
    80000516:	0107971b          	slliw	a4,a5,0x10
    8000051a:	0107d79b          	srliw	a5,a5,0x10
    8000051e:	8fd9                	or	a5,a5,a4
    80000520:	2781                	sext.w	a5,a5
    80000522:	01079463          	bne	a5,a6,8000052a <plic_redact+0x5a>
    80000526:	0116a223          	sw	a7,4(a3)
    8000052a:	06a1                	addi	a3,a3,8
    8000052c:	40d607b3          	sub	a5,a2,a3
    80000530:	fcf04be3          	bgtz	a5,80000506 <plic_redact+0x36>
    80000534:	8082                	ret

0000000080000536 <compat_open>:
    80000536:	459c                	lw	a5,8(a1)
    80000538:	2785                	addiw	a5,a5,1
    8000053a:	c59c                	sw	a5,8(a1)
    8000053c:	8082                	ret

000000008000053e <compat_close>:
    8000053e:	459c                	lw	a5,8(a1)
    80000540:	45d8                	lw	a4,12(a1)
    80000542:	4501                	li	a0,0
    80000544:	fff7869b          	addiw	a3,a5,-1
    80000548:	c594                	sw	a3,8(a1)
    8000054a:	00f70363          	beq	a4,a5,80000550 <compat_close+0x12>
    8000054e:	8082                	ret
    80000550:	3e700793          	li	a5,999
    80000554:	c5dc                	sw	a5,12(a1)
    80000556:	557d                	li	a0,-1
    80000558:	8082                	ret

000000008000055a <chosen_close>:
    8000055a:	619c                	ld	a5,0(a1)
    8000055c:	c399                	beqz	a5,80000562 <chosen_close+0x8>
    8000055e:	00a78463          	beq	a5,a0,80000566 <chosen_close+0xc>
    80000562:	4501                	li	a0,0
    80000564:	8082                	ret
    80000566:	0005b023          	sd	zero,0(a1)
    8000056a:	4501                	li	a0,0
    8000056c:	8082                	ret

000000008000056e <hart_filter_open>:
    8000056e:	57fd                	li	a5,-1
    80000570:	1782                	slli	a5,a5,0x20
    80000572:	e19c                	sd	a5,0(a1)
    80000574:	0005b423          	sd	zero,8(a1)
    80000578:	0005b823          	sd	zero,16(a1)
    8000057c:	8082                	ret

000000008000057e <clint_done>:
    8000057e:	419c                	lw	a5,0(a1)
    80000580:	10078663          	beqz	a5,8000068c <clint_done+0x10e>
    80000584:	0085bf03          	ld	t5,8(a1)
    80000588:	1141                	addi	sp,sp,-16
    8000058a:	e406                	sd	ra,8(sp)
    8000058c:	100f0163          	beqz	t5,8000068e <clint_done+0x110>
    80000590:	0105b803          	ld	a6,16(a1)
    80000594:	14080563          	beqz	a6,800006de <clint_done+0x160>
    80000598:	4d9c                	lw	a5,24(a1)
    8000059a:	00f7f893          	andi	a7,a5,15
    8000059e:	14089063          	bnez	a7,800006de <clint_done+0x160>
    800005a2:	4dd8                	lw	a4,28(a1)
    800005a4:	10071963          	bnez	a4,800006b6 <clint_done+0x138>
    800005a8:	41f7d31b          	sraiw	t1,a5,0x1f
    800005ac:	01e3531b          	srliw	t1,t1,0x1e
    800005b0:	00f3033b          	addw	t1,t1,a5
    800005b4:	67b1                	lui	a5,0xc
    800005b6:	17e1                	addi	a5,a5,-8
    800005b8:	4705                	li	a4,1
    800005ba:	4023531b          	sraiw	t1,t1,0x2
    800005be:	97fa                	add	a5,a5,t5
    800005c0:	cdd8                	sw	a4,28(a1)
    800005c2:	030a                	slli	t1,t1,0x2
    800005c4:	00013717          	auipc	a4,0x13
    800005c8:	a8f73623          	sd	a5,-1396(a4) # 80013050 <mtime>
    800005cc:	06605863          	blez	t1,8000063c <clint_done+0xbe>
    800005d0:	6f85                	lui	t6,0x1
    800005d2:	9f8a                	add	t6,t6,sp
    800005d4:	77fd                	lui	a5,0xfffff
    800005d6:	ff010eb7          	lui	t4,0xff010
    800005da:	00ff0e37          	lui	t3,0xff0
    800005de:	6291                	lui	t0,0x4
    800005e0:	00ffffb3          	and	t6,t6,a5
    800005e4:	9342                	add	t1,t1,a6
    800005e6:	f00e8e93          	addi	t4,t4,-256 # ffffffffff00ff00 <_payload_end+0xffffffff7ec3815c>
    800005ea:	0ffe0e13          	addi	t3,t3,255 # ff00ff <MEM_START-0x7f00ff01>
    800005ee:	4521                	li	a0,8
    800005f0:	92fa                	add	t0,t0,t5
    800005f2:	f14023f3          	csrr	t2,mhartid
    800005f6:	00082603          	lw	a2,0(a6)
    800005fa:	0000a717          	auipc	a4,0xa
    800005fe:	a0670713          	addi	a4,a4,-1530 # 8000a000 <hart_phandles>
    80000602:	4781                	li	a5,0
    80000604:	0086169b          	slliw	a3,a2,0x8
    80000608:	0086561b          	srliw	a2,a2,0x8
    8000060c:	01c67633          	and	a2,a2,t3
    80000610:	01d6f6b3          	and	a3,a3,t4
    80000614:	8ed1                	or	a3,a3,a2
    80000616:	0106961b          	slliw	a2,a3,0x10
    8000061a:	0106d69b          	srliw	a3,a3,0x10
    8000061e:	8e55                	or	a2,a2,a3
    80000620:	2601                	sext.w	a2,a2
    80000622:	4314                	lw	a3,0(a4)
    80000624:	02c68163          	beq	a3,a2,80000646 <clint_done+0xc8>
    80000628:	2785                	addiw	a5,a5,1
    8000062a:	0711                	addi	a4,a4,4
    8000062c:	fea79be3          	bne	a5,a0,80000622 <clint_done+0xa4>
    80000630:	0841                	addi	a6,a6,16
    80000632:	410307b3          	sub	a5,t1,a6
    80000636:	2891                	addiw	a7,a7,4
    80000638:	faf04fe3          	bgtz	a5,800005f6 <clint_done+0x78>
    8000063c:	518c                	lw	a1,32(a1)
    8000063e:	e985                	bnez	a1,8000066e <clint_done+0xf0>
    80000640:	60a2                	ld	ra,8(sp)
    80000642:	0141                	addi	sp,sp,16
    80000644:	8082                	ret
    80000646:	407787b3          	sub	a5,a5,t2
    8000064a:	07b2                	slli	a5,a5,0xc
    8000064c:	0018971b          	slliw	a4,a7,0x1
    80000650:	fc078793          	addi	a5,a5,-64 # ffffffffffffefc0 <_payload_end+0xffffffff7fc2721c>
    80000654:	97fe                	add	a5,a5,t6
    80000656:	01e886b3          	add	a3,a7,t5
    8000065a:	9716                	add	a4,a4,t0
    8000065c:	0841                	addi	a6,a6,16
    8000065e:	e394                	sd	a3,0(a5)
    80000660:	eb98                	sd	a4,16(a5)
    80000662:	410307b3          	sub	a5,t1,a6
    80000666:	2891                	addiw	a7,a7,4
    80000668:	f8f047e3          	bgtz	a5,800005f6 <clint_done+0x78>
    8000066c:	bfc1                	j	8000063c <clint_done+0xbe>
    8000066e:	02059793          	slli	a5,a1,0x20
    80000672:	6721                	lui	a4,0x8
    80000674:	60a2                	ld	ra,8(sp)
    80000676:	9381                	srli	a5,a5,0x20
    80000678:	9f3a                	add	t5,t5,a4
    8000067a:	00ff3023          	sd	a5,0(t5)
    8000067e:	00006517          	auipc	a0,0x6
    80000682:	71250513          	addi	a0,a0,1810 # 80006d90 <softfloat_countLeadingZeros8+0x218>
    80000686:	0141                	addi	sp,sp,16
    80000688:	6140106f          	j	80001c9c <printm>
    8000068c:	8082                	ret
    8000068e:	00006517          	auipc	a0,0x6
    80000692:	6a250513          	addi	a0,a0,1698 # 80006d30 <softfloat_countLeadingZeros8+0x1b8>
    80000696:	00006697          	auipc	a3,0x6
    8000069a:	65a68693          	addi	a3,a3,1626 # 80006cf0 <softfloat_countLeadingZeros8+0x178>
    8000069e:	15700613          	li	a2,343
    800006a2:	00006597          	auipc	a1,0x6
    800006a6:	65e58593          	addi	a1,a1,1630 # 80006d00 <softfloat_countLeadingZeros8+0x188>
    800006aa:	5f2010ef          	jal	ra,80001c9c <printm>
    800006ae:	6541                	lui	a0,0x10
    800006b0:	157d                	addi	a0,a0,-1
    800006b2:	65a010ef          	jal	ra,80001d0c <poweroff>
    800006b6:	00006517          	auipc	a0,0x6
    800006ba:	67a50513          	addi	a0,a0,1658 # 80006d30 <softfloat_countLeadingZeros8+0x1b8>
    800006be:	00006697          	auipc	a3,0x6
    800006c2:	6c268693          	addi	a3,a3,1730 # 80006d80 <softfloat_countLeadingZeros8+0x208>
    800006c6:	15900613          	li	a2,345
    800006ca:	00006597          	auipc	a1,0x6
    800006ce:	63658593          	addi	a1,a1,1590 # 80006d00 <softfloat_countLeadingZeros8+0x188>
    800006d2:	5ca010ef          	jal	ra,80001c9c <printm>
    800006d6:	6541                	lui	a0,0x10
    800006d8:	157d                	addi	a0,a0,-1
    800006da:	632010ef          	jal	ra,80001d0c <poweroff>
    800006de:	00006517          	auipc	a0,0x6
    800006e2:	65250513          	addi	a0,a0,1618 # 80006d30 <softfloat_countLeadingZeros8+0x1b8>
    800006e6:	00006697          	auipc	a3,0x6
    800006ea:	66a68693          	addi	a3,a3,1642 # 80006d50 <softfloat_countLeadingZeros8+0x1d8>
    800006ee:	15800613          	li	a2,344
    800006f2:	00006597          	auipc	a1,0x6
    800006f6:	60e58593          	addi	a1,a1,1550 # 80006d00 <softfloat_countLeadingZeros8+0x188>
    800006fa:	5a2010ef          	jal	ra,80001c9c <printm>
    800006fe:	6541                	lui	a0,0x10
    80000700:	157d                	addi	a0,a0,-1
    80000702:	60a010ef          	jal	ra,80001d0c <poweroff>

0000000080000706 <plic_done>:
    80000706:	419c                	lw	a5,0(a1)
    80000708:	1a078463          	beqz	a5,800008b0 <plic_done+0x1aa>
    8000070c:	6594                	ld	a3,8(a1)
    8000070e:	715d                	addi	sp,sp,-80
    80000710:	f052                	sd	s4,32(sp)
    80000712:	e486                	sd	ra,72(sp)
    80000714:	e0a2                	sd	s0,64(sp)
    80000716:	fc26                	sd	s1,56(sp)
    80000718:	f84a                	sd	s2,48(sp)
    8000071a:	f44e                	sd	s3,40(sp)
    8000071c:	ec56                	sd	s5,24(sp)
    8000071e:	e85a                	sd	s6,16(sp)
    80000720:	e45e                	sd	s7,8(sp)
    80000722:	e062                	sd	s8,0(sp)
    80000724:	8a2e                	mv	s4,a1
    80000726:	20068263          	beqz	a3,8000092a <plic_done+0x224>
    8000072a:	6980                	ld	s0,16(a1)
    8000072c:	1c040b63          	beqz	s0,80000902 <plic_done+0x1fc>
    80000730:	4d9c                	lw	a5,24(a1)
    80000732:	0077f713          	andi	a4,a5,7
    80000736:	1c071663          	bnez	a4,80000902 <plic_done+0x1fc>
    8000073a:	5198                	lw	a4,32(a1)
    8000073c:	3ff00613          	li	a2,1023
    80000740:	18e66d63          	bltu	a2,a4,800008da <plic_done+0x1d4>
    80000744:	4dd0                	lw	a2,28(a1)
    80000746:	16061663          	bnez	a2,800008b2 <plic_done+0x1ac>
    8000074a:	41f7d49b          	sraiw	s1,a5,0x1f
    8000074e:	01e4d49b          	srliw	s1,s1,0x1e
    80000752:	9cbd                	addw	s1,s1,a5
    80000754:	4024d49b          	sraiw	s1,s1,0x2
    80000758:	4785                	li	a5,1
    8000075a:	cddc                	sw	a5,28(a1)
    8000075c:	048a                	slli	s1,s1,0x2
    8000075e:	00013797          	auipc	a5,0x13
    80000762:	8cd7bd23          	sd	a3,-1830(a5) # 80013038 <plic_priorities>
    80000766:	00013797          	auipc	a5,0x13
    8000076a:	8ce7b523          	sd	a4,-1846(a5) # 80013030 <plic_ndevs>
    8000076e:	06905a63          	blez	s1,800007e2 <plic_done+0xdc>
    80000772:	6a85                	lui	s5,0x1
    80000774:	40800b3b          	negw	s6,s0
    80000778:	9a8a                	add	s5,s5,sp
    8000077a:	ff0109b7          	lui	s3,0xff010
    8000077e:	00ff0937          	lui	s2,0xff0
    80000782:	77fd                	lui	a5,0xfffff
    80000784:	004b1c1b          	slliw	s8,s6,0x4
    80000788:	94a2                	add	s1,s1,s0
    8000078a:	009b1b1b          	slliw	s6,s6,0x9
    8000078e:	f0098993          	addi	s3,s3,-256 # ffffffffff00ff00 <_payload_end+0xffffffff7ec3815c>
    80000792:	0ff90913          	addi	s2,s2,255 # ff00ff <MEM_START-0x7f00ff01>
    80000796:	00fafab3          	and	s5,s5,a5
    8000079a:	f1402bf3          	csrr	s7,mhartid
    8000079e:	4014                	lw	a3,0(s0)
    800007a0:	0000a797          	auipc	a5,0xa
    800007a4:	86078793          	addi	a5,a5,-1952 # 8000a000 <hart_phandles>
    800007a8:	4581                	li	a1,0
    800007aa:	0086971b          	slliw	a4,a3,0x8
    800007ae:	0086d69b          	srliw	a3,a3,0x8
    800007b2:	0126f6b3          	and	a3,a3,s2
    800007b6:	01377733          	and	a4,a4,s3
    800007ba:	8f55                	or	a4,a4,a3
    800007bc:	0107169b          	slliw	a3,a4,0x10
    800007c0:	0107571b          	srliw	a4,a4,0x10
    800007c4:	8ed9                	or	a3,a3,a4
    800007c6:	2681                	sext.w	a3,a3
    800007c8:	4621                	li	a2,8
    800007ca:	4398                	lw	a4,0(a5)
    800007cc:	02d70763          	beq	a4,a3,800007fa <plic_done+0xf4>
    800007d0:	2585                	addiw	a1,a1,1
    800007d2:	0791                	addi	a5,a5,4
    800007d4:	fec59be3          	bne	a1,a2,800007ca <plic_done+0xc4>
    800007d8:	0421                	addi	s0,s0,8
    800007da:	408487b3          	sub	a5,s1,s0
    800007de:	fcf040e3          	bgtz	a5,8000079e <plic_done+0x98>
    800007e2:	60a6                	ld	ra,72(sp)
    800007e4:	6406                	ld	s0,64(sp)
    800007e6:	74e2                	ld	s1,56(sp)
    800007e8:	7942                	ld	s2,48(sp)
    800007ea:	79a2                	ld	s3,40(sp)
    800007ec:	7a02                	ld	s4,32(sp)
    800007ee:	6ae2                	ld	s5,24(sp)
    800007f0:	6b42                	ld	s6,16(sp)
    800007f2:	6ba2                	ld	s7,8(sp)
    800007f4:	6c02                	ld	s8,0(sp)
    800007f6:	6161                	addi	sp,sp,80
    800007f8:	8082                	ret
    800007fa:	4054                	lw	a3,4(s0)
    800007fc:	41758733          	sub	a4,a1,s7
    80000800:	0732                	slli	a4,a4,0xc
    80000802:	0086979b          	slliw	a5,a3,0x8
    80000806:	0086d69b          	srliw	a3,a3,0x8
    8000080a:	0137f7b3          	and	a5,a5,s3
    8000080e:	0126f6b3          	and	a3,a3,s2
    80000812:	8fd5                	or	a5,a5,a3
    80000814:	0107961b          	slliw	a2,a5,0x10
    80000818:	0107d79b          	srliw	a5,a5,0x10
    8000081c:	8fd1                	or	a5,a5,a2
    8000081e:	fc070713          	addi	a4,a4,-64 # 7fc0 <MEM_START-0x7fff8040>
    80000822:	0007861b          	sext.w	a2,a5
    80000826:	47ad                	li	a5,11
    80000828:	9756                	add	a4,a4,s5
    8000082a:	02f60e63          	beq	a2,a5,80000866 <plic_done+0x160>
    8000082e:	47a5                	li	a5,9
    80000830:	06f61463          	bne	a2,a5,80000898 <plic_done+0x192>
    80000834:	008a3603          	ld	a2,8(s4)
    80000838:	0044169b          	slliw	a3,s0,0x4
    8000083c:	0094179b          	slliw	a5,s0,0x9
    80000840:	6589                	lui	a1,0x2
    80000842:	00200537          	lui	a0,0x200
    80000846:	95b2                	add	a1,a1,a2
    80000848:	018686bb          	addw	a3,a3,s8
    8000084c:	016787bb          	addw	a5,a5,s6
    80000850:	962a                	add	a2,a2,a0
    80000852:	97b2                	add	a5,a5,a2
    80000854:	96ae                	add	a3,a3,a1
    80000856:	0421                	addi	s0,s0,8
    80000858:	f71c                	sd	a5,40(a4)
    8000085a:	fb14                	sd	a3,48(a4)
    8000085c:	408487b3          	sub	a5,s1,s0
    80000860:	f2f04fe3          	bgtz	a5,8000079e <plic_done+0x98>
    80000864:	bfbd                	j	800007e2 <plic_done+0xdc>
    80000866:	008a3603          	ld	a2,8(s4)
    8000086a:	0044169b          	slliw	a3,s0,0x4
    8000086e:	0094179b          	slliw	a5,s0,0x9
    80000872:	6589                	lui	a1,0x2
    80000874:	00200537          	lui	a0,0x200
    80000878:	95b2                	add	a1,a1,a2
    8000087a:	018686bb          	addw	a3,a3,s8
    8000087e:	016787bb          	addw	a5,a5,s6
    80000882:	962a                	add	a2,a2,a0
    80000884:	97b2                	add	a5,a5,a2
    80000886:	96ae                	add	a3,a3,a1
    80000888:	0421                	addi	s0,s0,8
    8000088a:	ef1c                	sd	a5,24(a4)
    8000088c:	f314                	sd	a3,32(a4)
    8000088e:	408487b3          	sub	a5,s1,s0
    80000892:	f0f046e3          	bgtz	a5,8000079e <plic_done+0x98>
    80000896:	b7b1                	j	800007e2 <plic_done+0xdc>
    80000898:	00006517          	auipc	a0,0x6
    8000089c:	57050513          	addi	a0,a0,1392 # 80006e08 <softfloat_countLeadingZeros8+0x290>
    800008a0:	3fc010ef          	jal	ra,80001c9c <printm>
    800008a4:	0421                	addi	s0,s0,8
    800008a6:	408487b3          	sub	a5,s1,s0
    800008aa:	eef04ae3          	bgtz	a5,8000079e <plic_done+0x98>
    800008ae:	bf15                	j	800007e2 <plic_done+0xdc>
    800008b0:	8082                	ret
    800008b2:	00006517          	auipc	a0,0x6
    800008b6:	47e50513          	addi	a0,a0,1150 # 80006d30 <softfloat_countLeadingZeros8+0x1b8>
    800008ba:	00006697          	auipc	a3,0x6
    800008be:	4c668693          	addi	a3,a3,1222 # 80006d80 <softfloat_countLeadingZeros8+0x208>
    800008c2:	1b500613          	li	a2,437
    800008c6:	00006597          	auipc	a1,0x6
    800008ca:	43a58593          	addi	a1,a1,1082 # 80006d00 <softfloat_countLeadingZeros8+0x188>
    800008ce:	3ce010ef          	jal	ra,80001c9c <printm>
    800008d2:	6541                	lui	a0,0x10
    800008d4:	157d                	addi	a0,a0,-1
    800008d6:	436010ef          	jal	ra,80001d0c <poweroff>
    800008da:	00006517          	auipc	a0,0x6
    800008de:	45650513          	addi	a0,a0,1110 # 80006d30 <softfloat_countLeadingZeros8+0x1b8>
    800008e2:	00006697          	auipc	a3,0x6
    800008e6:	4fe68693          	addi	a3,a3,1278 # 80006de0 <softfloat_countLeadingZeros8+0x268>
    800008ea:	1b400613          	li	a2,436
    800008ee:	00006597          	auipc	a1,0x6
    800008f2:	41258593          	addi	a1,a1,1042 # 80006d00 <softfloat_countLeadingZeros8+0x188>
    800008f6:	3a6010ef          	jal	ra,80001c9c <printm>
    800008fa:	6541                	lui	a0,0x10
    800008fc:	157d                	addi	a0,a0,-1
    800008fe:	40e010ef          	jal	ra,80001d0c <poweroff>
    80000902:	00006517          	auipc	a0,0x6
    80000906:	42e50513          	addi	a0,a0,1070 # 80006d30 <softfloat_countLeadingZeros8+0x1b8>
    8000090a:	00006697          	auipc	a3,0x6
    8000090e:	4a668693          	addi	a3,a3,1190 # 80006db0 <softfloat_countLeadingZeros8+0x238>
    80000912:	1b300613          	li	a2,435
    80000916:	00006597          	auipc	a1,0x6
    8000091a:	3ea58593          	addi	a1,a1,1002 # 80006d00 <softfloat_countLeadingZeros8+0x188>
    8000091e:	37e010ef          	jal	ra,80001c9c <printm>
    80000922:	6541                	lui	a0,0x10
    80000924:	157d                	addi	a0,a0,-1
    80000926:	3e6010ef          	jal	ra,80001d0c <poweroff>
    8000092a:	00006517          	auipc	a0,0x6
    8000092e:	40650513          	addi	a0,a0,1030 # 80006d30 <softfloat_countLeadingZeros8+0x1b8>
    80000932:	00006697          	auipc	a3,0x6
    80000936:	3be68693          	addi	a3,a3,958 # 80006cf0 <softfloat_countLeadingZeros8+0x178>
    8000093a:	1b200613          	li	a2,434
    8000093e:	00006597          	auipc	a1,0x6
    80000942:	3c258593          	addi	a1,a1,962 # 80006d00 <softfloat_countLeadingZeros8+0x188>
    80000946:	356010ef          	jal	ra,80001c9c <printm>
    8000094a:	6541                	lui	a0,0x10
    8000094c:	157d                	addi	a0,a0,-1
    8000094e:	3be010ef          	jal	ra,80001d0c <poweroff>

0000000080000952 <mem_done>:
    80000952:	419c                	lw	a5,0(a1)
    80000954:	12078063          	beqz	a5,80000a74 <mem_done+0x122>
    80000958:	0085b283          	ld	t0,8(a1)
    8000095c:	1101                	addi	sp,sp,-32
    8000095e:	ec06                	sd	ra,24(sp)
    80000960:	e822                	sd	s0,16(sp)
    80000962:	e426                	sd	s1,8(sp)
    80000964:	10028963          	beqz	t0,80000a76 <mem_done+0x124>
    80000968:	4998                	lw	a4,16(a1)
    8000096a:	00377793          	andi	a5,a4,3
    8000096e:	10079463          	bnez	a5,80000a76 <mem_done+0x124>
    80000972:	41f7579b          	sraiw	a5,a4,0x1f
    80000976:	01e7d79b          	srliw	a5,a5,0x1e
    8000097a:	9fb9                	addw	a5,a5,a4
    8000097c:	4027d79b          	sraiw	a5,a5,0x2
    80000980:	078a                	slli	a5,a5,0x2
    80000982:	00f288b3          	add	a7,t0,a5
    80000986:	0cf05a63          	blez	a5,80000a5a <mem_done+0x108>
    8000098a:	611c                	ld	a5,0(a0)
    8000098c:	00012f97          	auipc	t6,0x12
    80000990:	6b4f8f93          	addi	t6,t6,1716 # 80013040 <mem_size>
    80000994:	000fbf03          	ld	t5,0(t6)
    80000998:	0107a303          	lw	t1,16(a5)
    8000099c:	0147ae03          	lw	t3,20(a5)
    800009a0:	ff010637          	lui	a2,0xff010
    800009a4:	fff3051b          	addiw	a0,t1,-1
    800009a8:	fffe059b          	addiw	a1,t3,-1
    800009ac:	1502                	slli	a0,a0,0x20
    800009ae:	1582                	slli	a1,a1,0x20
    800009b0:	9101                	srli	a0,a0,0x20
    800009b2:	9181                	srli	a1,a1,0x20
    800009b4:	0505                	addi	a0,a0,1
    800009b6:	0585                	addi	a1,a1,1
    800009b8:	00ff06b7          	lui	a3,0xff0
    800009bc:	00000817          	auipc	a6,0x0
    800009c0:	f9680813          	addi	a6,a6,-106 # 80000952 <mem_done>
    800009c4:	050a                	slli	a0,a0,0x2
    800009c6:	058a                	slli	a1,a1,0x2
    800009c8:	4e81                	li	t4,0
    800009ca:	f0060613          	addi	a2,a2,-256 # ffffffffff00ff00 <_payload_end+0xffffffff7ec3815c>
    800009ce:	0ff68693          	addi	a3,a3,255 # ff00ff <MEM_START-0x7f00ff01>
    800009d2:	08605b63          	blez	t1,80000a68 <mem_done+0x116>
    800009d6:	00a28433          	add	s0,t0,a0
    800009da:	4381                	li	t2,0
    800009dc:	0002a703          	lw	a4,0(t0) # 4000 <MEM_START-0x7fffc000>
    800009e0:	1382                	slli	t2,t2,0x20
    800009e2:	0291                	addi	t0,t0,4
    800009e4:	0087179b          	slliw	a5,a4,0x8
    800009e8:	0087571b          	srliw	a4,a4,0x8
    800009ec:	8f75                	and	a4,a4,a3
    800009ee:	8ff1                	and	a5,a5,a2
    800009f0:	8fd9                	or	a5,a5,a4
    800009f2:	0107971b          	slliw	a4,a5,0x10
    800009f6:	0107d79b          	srliw	a5,a5,0x10
    800009fa:	8fd9                	or	a5,a5,a4
    800009fc:	1782                	slli	a5,a5,0x20
    800009fe:	9381                	srli	a5,a5,0x20
    80000a00:	93be                	add	t2,t2,a5
    80000a02:	fc829de3          	bne	t0,s0,800009dc <mem_done+0x8a>
    80000a06:	07c05563          	blez	t3,80000a70 <mem_done+0x11e>
    80000a0a:	00b284b3          	add	s1,t0,a1
    80000a0e:	4781                	li	a5,0
    80000a10:	0002a703          	lw	a4,0(t0)
    80000a14:	02079413          	slli	s0,a5,0x20
    80000a18:	0291                	addi	t0,t0,4
    80000a1a:	0087179b          	slliw	a5,a4,0x8
    80000a1e:	0087571b          	srliw	a4,a4,0x8
    80000a22:	8f75                	and	a4,a4,a3
    80000a24:	8ff1                	and	a5,a5,a2
    80000a26:	8fd9                	or	a5,a5,a4
    80000a28:	0107971b          	slliw	a4,a5,0x10
    80000a2c:	0107d79b          	srliw	a5,a5,0x10
    80000a30:	8fd9                	or	a5,a5,a4
    80000a32:	1782                	slli	a5,a5,0x20
    80000a34:	9381                	srli	a5,a5,0x20
    80000a36:	97a2                	add	a5,a5,s0
    80000a38:	fc929ce3          	bne	t0,s1,80000a10 <mem_done+0xbe>
    80000a3c:	00786763          	bltu	a6,t2,80000a4a <mem_done+0xf8>
    80000a40:	93be                	add	t2,t2,a5
    80000a42:	0103e463          	bltu	t2,a6,80000a4a <mem_done+0xf8>
    80000a46:	8f3e                	mv	t5,a5
    80000a48:	4e85                	li	t4,1
    80000a4a:	405887b3          	sub	a5,a7,t0
    80000a4e:	f8f042e3          	bgtz	a5,800009d2 <mem_done+0x80>
    80000a52:	000e8463          	beqz	t4,80000a5a <mem_done+0x108>
    80000a56:	01efb023          	sd	t5,0(t6)
    80000a5a:	04589263          	bne	a7,t0,80000a9e <mem_done+0x14c>
    80000a5e:	60e2                	ld	ra,24(sp)
    80000a60:	6442                	ld	s0,16(sp)
    80000a62:	64a2                	ld	s1,8(sp)
    80000a64:	6105                	addi	sp,sp,32
    80000a66:	8082                	ret
    80000a68:	4381                	li	t2,0
    80000a6a:	fbc040e3          	bgtz	t3,80000a0a <mem_done+0xb8>
    80000a6e:	bff1                	j	80000a4a <mem_done+0xf8>
    80000a70:	4781                	li	a5,0
    80000a72:	b7e9                	j	80000a3c <mem_done+0xea>
    80000a74:	8082                	ret
    80000a76:	00006517          	auipc	a0,0x6
    80000a7a:	2ba50513          	addi	a0,a0,698 # 80006d30 <softfloat_countLeadingZeros8+0x1b8>
    80000a7e:	00006697          	auipc	a3,0x6
    80000a82:	3ba68693          	addi	a3,a3,954 # 80006e38 <softfloat_countLeadingZeros8+0x2c0>
    80000a86:	0b400613          	li	a2,180
    80000a8a:	00006597          	auipc	a1,0x6
    80000a8e:	27658593          	addi	a1,a1,630 # 80006d00 <softfloat_countLeadingZeros8+0x188>
    80000a92:	20a010ef          	jal	ra,80001c9c <printm>
    80000a96:	6541                	lui	a0,0x10
    80000a98:	157d                	addi	a0,a0,-1
    80000a9a:	272010ef          	jal	ra,80001d0c <poweroff>
    80000a9e:	00006517          	auipc	a0,0x6
    80000aa2:	29250513          	addi	a0,a0,658 # 80006d30 <softfloat_countLeadingZeros8+0x1b8>
    80000aa6:	00006697          	auipc	a3,0x6
    80000aaa:	3c268693          	addi	a3,a3,962 # 80006e68 <softfloat_countLeadingZeros8+0x2f0>
    80000aae:	0bc00613          	li	a2,188
    80000ab2:	00006597          	auipc	a1,0x6
    80000ab6:	24e58593          	addi	a1,a1,590 # 80006d00 <softfloat_countLeadingZeros8+0x188>
    80000aba:	1e2010ef          	jal	ra,80001c9c <printm>
    80000abe:	6541                	lui	a0,0x10
    80000ac0:	157d                	addi	a0,a0,-1
    80000ac2:	24a010ef          	jal	ra,80001d0c <poweroff>

0000000080000ac6 <mem_prop>:
    80000ac6:	1101                	addi	sp,sp,-32
    80000ac8:	e04a                	sd	s2,0(sp)
    80000aca:	00853903          	ld	s2,8(a0) # 10008 <MEM_START-0x7ffefff8>
    80000ace:	e822                	sd	s0,16(sp)
    80000ad0:	e426                	sd	s1,8(sp)
    80000ad2:	842a                	mv	s0,a0
    80000ad4:	84ae                	mv	s1,a1
    80000ad6:	854a                	mv	a0,s2
    80000ad8:	00006597          	auipc	a1,0x6
    80000adc:	3a058593          	addi	a1,a1,928 # 80006e78 <softfloat_countLeadingZeros8+0x300>
    80000ae0:	ec06                	sd	ra,24(sp)
    80000ae2:	1d7050ef          	jal	ra,800064b8 <strcmp>
    80000ae6:	e10d                	bnez	a0,80000b08 <mem_prop+0x42>
    80000ae8:	6808                	ld	a0,16(s0)
    80000aea:	00006597          	auipc	a1,0x6
    80000aee:	39e58593          	addi	a1,a1,926 # 80006e88 <softfloat_countLeadingZeros8+0x310>
    80000af2:	1c7050ef          	jal	ra,800064b8 <strcmp>
    80000af6:	e909                	bnez	a0,80000b08 <mem_prop+0x42>
    80000af8:	4785                	li	a5,1
    80000afa:	c09c                	sw	a5,0(s1)
    80000afc:	60e2                	ld	ra,24(sp)
    80000afe:	6442                	ld	s0,16(sp)
    80000b00:	64a2                	ld	s1,8(sp)
    80000b02:	6902                	ld	s2,0(sp)
    80000b04:	6105                	addi	sp,sp,32
    80000b06:	8082                	ret
    80000b08:	00006597          	auipc	a1,0x6
    80000b0c:	38858593          	addi	a1,a1,904 # 80006e90 <softfloat_countLeadingZeros8+0x318>
    80000b10:	854a                	mv	a0,s2
    80000b12:	1a7050ef          	jal	ra,800064b8 <strcmp>
    80000b16:	f17d                	bnez	a0,80000afc <mem_prop+0x36>
    80000b18:	6818                	ld	a4,16(s0)
    80000b1a:	4c1c                	lw	a5,24(s0)
    80000b1c:	60e2                	ld	ra,24(sp)
    80000b1e:	6442                	ld	s0,16(sp)
    80000b20:	e498                	sd	a4,8(s1)
    80000b22:	c89c                	sw	a5,16(s1)
    80000b24:	6902                	ld	s2,0(sp)
    80000b26:	64a2                	ld	s1,8(sp)
    80000b28:	6105                	addi	sp,sp,32
    80000b2a:	8082                	ret

0000000080000b2c <chosen_open>:
    80000b2c:	1101                	addi	sp,sp,-32
    80000b2e:	e822                	sd	s0,16(sp)
    80000b30:	842a                	mv	s0,a0
    80000b32:	6508                	ld	a0,8(a0)
    80000b34:	e426                	sd	s1,8(sp)
    80000b36:	84ae                	mv	s1,a1
    80000b38:	00006597          	auipc	a1,0x6
    80000b3c:	36058593          	addi	a1,a1,864 # 80006e98 <softfloat_countLeadingZeros8+0x320>
    80000b40:	ec06                	sd	ra,24(sp)
    80000b42:	177050ef          	jal	ra,800064b8 <strcmp>
    80000b46:	e111                	bnez	a0,80000b4a <chosen_open+0x1e>
    80000b48:	e080                	sd	s0,0(s1)
    80000b4a:	60e2                	ld	ra,24(sp)
    80000b4c:	6442                	ld	s0,16(sp)
    80000b4e:	64a2                	ld	s1,8(sp)
    80000b50:	6105                	addi	sp,sp,32
    80000b52:	8082                	ret

0000000080000b54 <hart_prop>:
    80000b54:	1101                	addi	sp,sp,-32
    80000b56:	e04a                	sd	s2,0(sp)
    80000b58:	00853903          	ld	s2,8(a0)
    80000b5c:	e822                	sd	s0,16(sp)
    80000b5e:	e426                	sd	s1,8(sp)
    80000b60:	842a                	mv	s0,a0
    80000b62:	84ae                	mv	s1,a1
    80000b64:	854a                	mv	a0,s2
    80000b66:	00006597          	auipc	a1,0x6
    80000b6a:	31258593          	addi	a1,a1,786 # 80006e78 <softfloat_countLeadingZeros8+0x300>
    80000b6e:	ec06                	sd	ra,24(sp)
    80000b70:	149050ef          	jal	ra,800064b8 <strcmp>
    80000b74:	e505                	bnez	a0,80000b9c <hart_prop+0x48>
    80000b76:	6808                	ld	a0,16(s0)
    80000b78:	00006597          	auipc	a1,0x6
    80000b7c:	32858593          	addi	a1,a1,808 # 80006ea0 <softfloat_countLeadingZeros8+0x328>
    80000b80:	139050ef          	jal	ra,800064b8 <strcmp>
    80000b84:	ed01                	bnez	a0,80000b9c <hart_prop+0x48>
    80000b86:	609c                	ld	a5,0(s1)
    80000b88:	14079d63          	bnez	a5,80000ce2 <hart_prop+0x18e>
    80000b8c:	601c                	ld	a5,0(s0)
    80000b8e:	60e2                	ld	ra,24(sp)
    80000b90:	6442                	ld	s0,16(sp)
    80000b92:	e09c                	sd	a5,0(s1)
    80000b94:	6902                	ld	s2,0(sp)
    80000b96:	64a2                	ld	s1,8(sp)
    80000b98:	6105                	addi	sp,sp,32
    80000b9a:	8082                	ret
    80000b9c:	00006597          	auipc	a1,0x6
    80000ba0:	31c58593          	addi	a1,a1,796 # 80006eb8 <softfloat_countLeadingZeros8+0x340>
    80000ba4:	854a                	mv	a0,s2
    80000ba6:	113050ef          	jal	ra,800064b8 <strcmp>
    80000baa:	ed01                	bnez	a0,80000bc2 <hart_prop+0x6e>
    80000bac:	689c                	ld	a5,16(s1)
    80000bae:	10079663          	bnez	a5,80000cba <hart_prop+0x166>
    80000bb2:	601c                	ld	a5,0(s0)
    80000bb4:	e89c                	sd	a5,16(s1)
    80000bb6:	60e2                	ld	ra,24(sp)
    80000bb8:	6442                	ld	s0,16(sp)
    80000bba:	64a2                	ld	s1,8(sp)
    80000bbc:	6902                	ld	s2,0(sp)
    80000bbe:	6105                	addi	sp,sp,32
    80000bc0:	8082                	ret
    80000bc2:	00006597          	auipc	a1,0x6
    80000bc6:	32658593          	addi	a1,a1,806 # 80006ee8 <softfloat_countLeadingZeros8+0x370>
    80000bca:	854a                	mv	a0,s2
    80000bcc:	0ed050ef          	jal	ra,800064b8 <strcmp>
    80000bd0:	c129                	beqz	a0,80000c12 <hart_prop+0xbe>
    80000bd2:	00006597          	auipc	a1,0x6
    80000bd6:	32e58593          	addi	a1,a1,814 # 80006f00 <softfloat_countLeadingZeros8+0x388>
    80000bda:	854a                	mv	a0,s2
    80000bdc:	0dd050ef          	jal	ra,800064b8 <strcmp>
    80000be0:	e535                	bnez	a0,80000c4c <hart_prop+0xf8>
    80000be2:	681c                	ld	a5,16(s0)
    80000be4:	ff0106b7          	lui	a3,0xff010
    80000be8:	f0068693          	addi	a3,a3,-256 # ffffffffff00ff00 <_payload_end+0xffffffff7ec3815c>
    80000bec:	4398                	lw	a4,0(a5)
    80000bee:	0087179b          	slliw	a5,a4,0x8
    80000bf2:	8ff5                	and	a5,a5,a3
    80000bf4:	00ff06b7          	lui	a3,0xff0
    80000bf8:	0087571b          	srliw	a4,a4,0x8
    80000bfc:	0ff68693          	addi	a3,a3,255 # ff00ff <MEM_START-0x7f00ff01>
    80000c00:	8f75                	and	a4,a4,a3
    80000c02:	8fd9                	or	a5,a5,a4
    80000c04:	0107971b          	slliw	a4,a5,0x10
    80000c08:	0107d79b          	srliw	a5,a5,0x10
    80000c0c:	8fd9                	or	a5,a5,a4
    80000c0e:	ccdc                	sw	a5,28(s1)
    80000c10:	b75d                	j	80000bb6 <hart_prop+0x62>
    80000c12:	681c                	ld	a5,16(s0)
    80000c14:	ff0106b7          	lui	a3,0xff010
    80000c18:	f0068693          	addi	a3,a3,-256 # ffffffffff00ff00 <_payload_end+0xffffffff7ec3815c>
    80000c1c:	4398                	lw	a4,0(a5)
    80000c1e:	60e2                	ld	ra,24(sp)
    80000c20:	6442                	ld	s0,16(sp)
    80000c22:	0087179b          	slliw	a5,a4,0x8
    80000c26:	8ff5                	and	a5,a5,a3
    80000c28:	00ff06b7          	lui	a3,0xff0
    80000c2c:	0087571b          	srliw	a4,a4,0x8
    80000c30:	0ff68693          	addi	a3,a3,255 # ff00ff <MEM_START-0x7f00ff01>
    80000c34:	8f75                	and	a4,a4,a3
    80000c36:	8fd9                	or	a5,a5,a4
    80000c38:	0107971b          	slliw	a4,a5,0x10
    80000c3c:	0107d79b          	srliw	a5,a5,0x10
    80000c40:	8fd9                	or	a5,a5,a4
    80000c42:	cc9c                	sw	a5,24(s1)
    80000c44:	6902                	ld	s2,0(sp)
    80000c46:	64a2                	ld	s1,8(sp)
    80000c48:	6105                	addi	sp,sp,32
    80000c4a:	8082                	ret
    80000c4c:	00006597          	auipc	a1,0x6
    80000c50:	24458593          	addi	a1,a1,580 # 80006e90 <softfloat_countLeadingZeros8+0x318>
    80000c54:	854a                	mv	a0,s2
    80000c56:	063050ef          	jal	ra,800064b8 <strcmp>
    80000c5a:	87aa                	mv	a5,a0
    80000c5c:	fd29                	bnez	a0,80000bb6 <hart_prop+0x62>
    80000c5e:	6018                	ld	a4,0(s0)
    80000c60:	6810                	ld	a2,16(s0)
    80000c62:	6318                	ld	a4,0(a4)
    80000c64:	4b18                	lw	a4,16(a4)
    80000c66:	04e05863          	blez	a4,80000cb6 <hart_prop+0x162>
    80000c6a:	fff7059b          	addiw	a1,a4,-1
    80000c6e:	1582                	slli	a1,a1,0x20
    80000c70:	9181                	srli	a1,a1,0x20
    80000c72:	0585                	addi	a1,a1,1
    80000c74:	058a                	slli	a1,a1,0x2
    80000c76:	ff010837          	lui	a6,0xff010
    80000c7a:	00ff0537          	lui	a0,0xff0
    80000c7e:	95b2                	add	a1,a1,a2
    80000c80:	f0080813          	addi	a6,a6,-256 # ffffffffff00ff00 <_payload_end+0xffffffff7ec3815c>
    80000c84:	0ff50513          	addi	a0,a0,255 # ff00ff <MEM_START-0x7f00ff01>
    80000c88:	4218                	lw	a4,0(a2)
    80000c8a:	02079693          	slli	a3,a5,0x20
    80000c8e:	0611                	addi	a2,a2,4
    80000c90:	0087179b          	slliw	a5,a4,0x8
    80000c94:	0087571b          	srliw	a4,a4,0x8
    80000c98:	8f69                	and	a4,a4,a0
    80000c9a:	0107f7b3          	and	a5,a5,a6
    80000c9e:	8fd9                	or	a5,a5,a4
    80000ca0:	0107971b          	slliw	a4,a5,0x10
    80000ca4:	0107d79b          	srliw	a5,a5,0x10
    80000ca8:	8fd9                	or	a5,a5,a4
    80000caa:	1782                	slli	a5,a5,0x20
    80000cac:	9381                	srli	a5,a5,0x20
    80000cae:	97b6                	add	a5,a5,a3
    80000cb0:	fcb61ce3          	bne	a2,a1,80000c88 <hart_prop+0x134>
    80000cb4:	2781                	sext.w	a5,a5
    80000cb6:	c49c                	sw	a5,8(s1)
    80000cb8:	bdfd                	j	80000bb6 <hart_prop+0x62>
    80000cba:	00006517          	auipc	a0,0x6
    80000cbe:	07650513          	addi	a0,a0,118 # 80006d30 <softfloat_countLeadingZeros8+0x1b8>
    80000cc2:	00006697          	auipc	a3,0x6
    80000cc6:	20e68693          	addi	a3,a3,526 # 80006ed0 <softfloat_countLeadingZeros8+0x358>
    80000cca:	0ef00613          	li	a2,239
    80000cce:	00006597          	auipc	a1,0x6
    80000cd2:	03258593          	addi	a1,a1,50 # 80006d00 <softfloat_countLeadingZeros8+0x188>
    80000cd6:	7c7000ef          	jal	ra,80001c9c <printm>
    80000cda:	6541                	lui	a0,0x10
    80000cdc:	157d                	addi	a0,a0,-1
    80000cde:	02e010ef          	jal	ra,80001d0c <poweroff>
    80000ce2:	00006517          	auipc	a0,0x6
    80000ce6:	04e50513          	addi	a0,a0,78 # 80006d30 <softfloat_countLeadingZeros8+0x1b8>
    80000cea:	00006697          	auipc	a3,0x6
    80000cee:	1be68693          	addi	a3,a3,446 # 80006ea8 <softfloat_countLeadingZeros8+0x330>
    80000cf2:	0ec00613          	li	a2,236
    80000cf6:	bfe1                	j	80000cce <hart_prop+0x17a>

0000000080000cf8 <hart_filter_prop>:
    80000cf8:	1101                	addi	sp,sp,-32
    80000cfa:	e04a                	sd	s2,0(sp)
    80000cfc:	00853903          	ld	s2,8(a0)
    80000d00:	e822                	sd	s0,16(sp)
    80000d02:	e426                	sd	s1,8(sp)
    80000d04:	842e                	mv	s0,a1
    80000d06:	84aa                	mv	s1,a0
    80000d08:	00006597          	auipc	a1,0x6
    80000d0c:	17058593          	addi	a1,a1,368 # 80006e78 <softfloat_countLeadingZeros8+0x300>
    80000d10:	854a                	mv	a0,s2
    80000d12:	ec06                	sd	ra,24(sp)
    80000d14:	7a4050ef          	jal	ra,800064b8 <strcmp>
    80000d18:	e10d                	bnez	a0,80000d3a <hart_filter_prop+0x42>
    80000d1a:	6888                	ld	a0,16(s1)
    80000d1c:	00006597          	auipc	a1,0x6
    80000d20:	18458593          	addi	a1,a1,388 # 80006ea0 <softfloat_countLeadingZeros8+0x328>
    80000d24:	794050ef          	jal	ra,800064b8 <strcmp>
    80000d28:	e909                	bnez	a0,80000d3a <hart_filter_prop+0x42>
    80000d2a:	4785                	li	a5,1
    80000d2c:	60e2                	ld	ra,24(sp)
    80000d2e:	c01c                	sw	a5,0(s0)
    80000d30:	6442                	ld	s0,16(sp)
    80000d32:	64a2                	ld	s1,8(sp)
    80000d34:	6902                	ld	s2,0(sp)
    80000d36:	6105                	addi	sp,sp,32
    80000d38:	8082                	ret
    80000d3a:	00006597          	auipc	a1,0x6
    80000d3e:	15658593          	addi	a1,a1,342 # 80006e90 <softfloat_countLeadingZeros8+0x318>
    80000d42:	854a                	mv	a0,s2
    80000d44:	774050ef          	jal	ra,800064b8 <strcmp>
    80000d48:	87aa                	mv	a5,a0
    80000d4a:	e525                	bnez	a0,80000db2 <hart_filter_prop+0xba>
    80000d4c:	6098                	ld	a4,0(s1)
    80000d4e:	6890                	ld	a2,16(s1)
    80000d50:	6318                	ld	a4,0(a4)
    80000d52:	4b18                	lw	a4,16(a4)
    80000d54:	04e05863          	blez	a4,80000da4 <hart_filter_prop+0xac>
    80000d58:	fff7059b          	addiw	a1,a4,-1
    80000d5c:	1582                	slli	a1,a1,0x20
    80000d5e:	9181                	srli	a1,a1,0x20
    80000d60:	0585                	addi	a1,a1,1
    80000d62:	058a                	slli	a1,a1,0x2
    80000d64:	ff010837          	lui	a6,0xff010
    80000d68:	00ff0537          	lui	a0,0xff0
    80000d6c:	95b2                	add	a1,a1,a2
    80000d6e:	f0080813          	addi	a6,a6,-256 # ffffffffff00ff00 <_payload_end+0xffffffff7ec3815c>
    80000d72:	0ff50513          	addi	a0,a0,255 # ff00ff <MEM_START-0x7f00ff01>
    80000d76:	4218                	lw	a4,0(a2)
    80000d78:	02079693          	slli	a3,a5,0x20
    80000d7c:	0611                	addi	a2,a2,4
    80000d7e:	0087179b          	slliw	a5,a4,0x8
    80000d82:	0087571b          	srliw	a4,a4,0x8
    80000d86:	8f69                	and	a4,a4,a0
    80000d88:	0107f7b3          	and	a5,a5,a6
    80000d8c:	8fd9                	or	a5,a5,a4
    80000d8e:	0107971b          	slliw	a4,a5,0x10
    80000d92:	0107d79b          	srliw	a5,a5,0x10
    80000d96:	8fd9                	or	a5,a5,a4
    80000d98:	1782                	slli	a5,a5,0x20
    80000d9a:	9381                	srli	a5,a5,0x20
    80000d9c:	97b6                	add	a5,a5,a3
    80000d9e:	fcb61ce3          	bne	a2,a1,80000d76 <hart_filter_prop+0x7e>
    80000da2:	2781                	sext.w	a5,a5
    80000da4:	c05c                	sw	a5,4(s0)
    80000da6:	60e2                	ld	ra,24(sp)
    80000da8:	6442                	ld	s0,16(sp)
    80000daa:	64a2                	ld	s1,8(sp)
    80000dac:	6902                	ld	s2,0(sp)
    80000dae:	6105                	addi	sp,sp,32
    80000db0:	8082                	ret
    80000db2:	00006597          	auipc	a1,0x6
    80000db6:	1d658593          	addi	a1,a1,470 # 80006f88 <softfloat_countLeadingZeros8+0x410>
    80000dba:	854a                	mv	a0,s2
    80000dbc:	6fc050ef          	jal	ra,800064b8 <strcmp>
    80000dc0:	cd01                	beqz	a0,80000dd8 <hart_filter_prop+0xe0>
    80000dc2:	00006597          	auipc	a1,0x6
    80000dc6:	14658593          	addi	a1,a1,326 # 80006f08 <softfloat_countLeadingZeros8+0x390>
    80000dca:	854a                	mv	a0,s2
    80000dcc:	6ec050ef          	jal	ra,800064b8 <strcmp>
    80000dd0:	f979                	bnez	a0,80000da6 <hart_filter_prop+0xae>
    80000dd2:	689c                	ld	a5,16(s1)
    80000dd4:	e81c                	sd	a5,16(s0)
    80000dd6:	bfc1                	j	80000da6 <hart_filter_prop+0xae>
    80000dd8:	689c                	ld	a5,16(s1)
    80000dda:	60e2                	ld	ra,24(sp)
    80000ddc:	64a2                	ld	s1,8(sp)
    80000dde:	e41c                	sd	a5,8(s0)
    80000de0:	6442                	ld	s0,16(sp)
    80000de2:	6902                	ld	s2,0(sp)
    80000de4:	6105                	addi	sp,sp,32
    80000de6:	8082                	ret

0000000080000de8 <fdt_scan_helper>:
    80000de8:	4785                	li	a5,1
    80000dea:	7131                	addi	sp,sp,-192
    80000dec:	1782                	slli	a5,a5,0x20
    80000dee:	f922                	sd	s0,176(sp)
    80000df0:	f526                	sd	s1,168(sp)
    80000df2:	0789                	addi	a5,a5,2
    80000df4:	00ff04b7          	lui	s1,0xff0
    80000df8:	ff010437          	lui	s0,0xff010
    80000dfc:	f14a                	sd	s2,160(sp)
    80000dfe:	ed4e                	sd	s3,152(sp)
    80000e00:	e952                	sd	s4,144(sp)
    80000e02:	e556                	sd	s5,136(sp)
    80000e04:	e15a                	sd	s6,128(sp)
    80000e06:	fcde                	sd	s7,120(sp)
    80000e08:	f8e2                	sd	s8,112(sp)
    80000e0a:	f4e6                	sd	s9,104(sp)
    80000e0c:	f0ea                	sd	s10,96(sp)
    80000e0e:	fd06                	sd	ra,184(sp)
    80000e10:	ecee                	sd	s11,88(sp)
    80000e12:	8c32                	mv	s8,a2
    80000e14:	8baa                	mv	s7,a0
    80000e16:	892e                	mv	s2,a1
    80000e18:	8b36                	mv	s6,a3
    80000e1a:	ec32                	sd	a2,24(sp)
    80000e1c:	f43e                	sd	a5,40(sp)
    80000e1e:	f832                	sd	a2,48(sp)
    80000e20:	4d01                	li	s10,0
    80000e22:	0ff48493          	addi	s1,s1,255 # ff00ff <MEM_START-0x7f00ff01>
    80000e26:	f0040413          	addi	s0,s0,-256 # ffffffffff00ff00 <_payload_end+0xffffffff7ec3815c>
    80000e2a:	4c8d                	li	s9,3
    80000e2c:	00006a97          	auipc	s5,0x6
    80000e30:	0f4a8a93          	addi	s5,s5,244 # 80006f20 <softfloat_countLeadingZeros8+0x3a8>
    80000e34:	00006a17          	auipc	s4,0x6
    80000e38:	0fca0a13          	addi	s4,s4,252 # 80006f30 <softfloat_countLeadingZeros8+0x3b8>
    80000e3c:	4991                	li	s3,4
    80000e3e:	000ba783          	lw	a5,0(s7)
    80000e42:	0087d71b          	srliw	a4,a5,0x8
    80000e46:	0087979b          	slliw	a5,a5,0x8
    80000e4a:	8fe1                	and	a5,a5,s0
    80000e4c:	8f65                	and	a4,a4,s1
    80000e4e:	8f5d                	or	a4,a4,a5
    80000e50:	0107179b          	slliw	a5,a4,0x10
    80000e54:	0107571b          	srliw	a4,a4,0x10
    80000e58:	8fd9                	or	a5,a5,a4
    80000e5a:	2781                	sext.w	a5,a5
    80000e5c:	07978763          	beq	a5,s9,80000eca <fdt_scan_helper+0xe2>
    80000e60:	02fceb63          	bltu	s9,a5,80000e96 <fdt_scan_helper+0xae>
    80000e64:	4705                	li	a4,1
    80000e66:	12e78c63          	beq	a5,a4,80000f9e <fdt_scan_helper+0x1b6>
    80000e6a:	4709                	li	a4,2
    80000e6c:	04e79363          	bne	a5,a4,80000eb2 <fdt_scan_helper+0xca>
    80000e70:	020d0763          	beqz	s10,80000e9e <fdt_scan_helper+0xb6>
    80000e74:	0b91                	addi	s7,s7,4
    80000e76:	70ea                	ld	ra,184(sp)
    80000e78:	744a                	ld	s0,176(sp)
    80000e7a:	74aa                	ld	s1,168(sp)
    80000e7c:	790a                	ld	s2,160(sp)
    80000e7e:	69ea                	ld	s3,152(sp)
    80000e80:	6a4a                	ld	s4,144(sp)
    80000e82:	6aaa                	ld	s5,136(sp)
    80000e84:	6b0a                	ld	s6,128(sp)
    80000e86:	7c46                	ld	s8,112(sp)
    80000e88:	7ca6                	ld	s9,104(sp)
    80000e8a:	7d06                	ld	s10,96(sp)
    80000e8c:	6de6                	ld	s11,88(sp)
    80000e8e:	855e                	mv	a0,s7
    80000e90:	7be6                	ld	s7,120(sp)
    80000e92:	6129                	addi	sp,sp,192
    80000e94:	8082                	ret
    80000e96:	01379e63          	bne	a5,s3,80000eb2 <fdt_scan_helper+0xca>
    80000e9a:	0b91                	addi	s7,s7,4
    80000e9c:	b74d                	j	80000e3e <fdt_scan_helper+0x56>
    80000e9e:	fc0c0be3          	beqz	s8,80000e74 <fdt_scan_helper+0x8c>
    80000ea2:	010b3783          	ld	a5,16(s6)
    80000ea6:	d7f9                	beqz	a5,80000e74 <fdt_scan_helper+0x8c>
    80000ea8:	020b3583          	ld	a1,32(s6)
    80000eac:	8562                	mv	a0,s8
    80000eae:	9782                	jalr	a5
    80000eb0:	b7d1                	j	80000e74 <fdt_scan_helper+0x8c>
    80000eb2:	fc0d12e3          	bnez	s10,80000e76 <fdt_scan_helper+0x8e>
    80000eb6:	fc0c00e3          	beqz	s8,80000e76 <fdt_scan_helper+0x8e>
    80000eba:	010b3783          	ld	a5,16(s6)
    80000ebe:	dfc5                	beqz	a5,80000e76 <fdt_scan_helper+0x8e>
    80000ec0:	020b3583          	ld	a1,32(s6)
    80000ec4:	8562                	mv	a0,s8
    80000ec6:	9782                	jalr	a5
    80000ec8:	b77d                	j	80000e76 <fdt_scan_helper+0x8e>
    80000eca:	140d1463          	bnez	s10,80001012 <fdt_scan_helper+0x22a>
    80000ece:	008ba703          	lw	a4,8(s7)
    80000ed2:	004ba603          	lw	a2,4(s7)
    80000ed6:	00cb8593          	addi	a1,s7,12
    80000eda:	0087179b          	slliw	a5,a4,0x8
    80000ede:	0087571b          	srliw	a4,a4,0x8
    80000ee2:	8f65                	and	a4,a4,s1
    80000ee4:	8fe1                	and	a5,a5,s0
    80000ee6:	0086169b          	slliw	a3,a2,0x8
    80000eea:	8fd9                	or	a5,a5,a4
    80000eec:	0086561b          	srliw	a2,a2,0x8
    80000ef0:	0107971b          	slliw	a4,a5,0x10
    80000ef4:	8ee1                	and	a3,a3,s0
    80000ef6:	8e65                	and	a2,a2,s1
    80000ef8:	0107d79b          	srliw	a5,a5,0x10
    80000efc:	8ed1                	or	a3,a3,a2
    80000efe:	8f5d                	or	a4,a4,a5
    80000f00:	01069d9b          	slliw	s11,a3,0x10
    80000f04:	1702                	slli	a4,a4,0x20
    80000f06:	0106d69b          	srliw	a3,a3,0x10
    80000f0a:	9301                	srli	a4,a4,0x20
    80000f0c:	00dde6b3          	or	a3,s11,a3
    80000f10:	974a                	add	a4,a4,s2
    80000f12:	00068d9b          	sext.w	s11,a3
    80000f16:	fc3a                	sd	a4,56(sp)
    80000f18:	c4ee                	sw	s11,72(sp)
    80000f1a:	e0ae                	sd	a1,64(sp)
    80000f1c:	040c0e63          	beqz	s8,80000f78 <fdt_scan_helper+0x190>
    80000f20:	853a                	mv	a0,a4
    80000f22:	85d6                	mv	a1,s5
    80000f24:	e43a                	sd	a4,8(sp)
    80000f26:	592050ef          	jal	ra,800064b8 <strcmp>
    80000f2a:	6722                	ld	a4,8(sp)
    80000f2c:	e10d                	bnez	a0,80000f4e <fdt_scan_helper+0x166>
    80000f2e:	00cba683          	lw	a3,12(s7)
    80000f32:	0086979b          	slliw	a5,a3,0x8
    80000f36:	0086d69b          	srliw	a3,a3,0x8
    80000f3a:	8ee5                	and	a3,a3,s1
    80000f3c:	8fe1                	and	a5,a5,s0
    80000f3e:	8fd5                	or	a5,a5,a3
    80000f40:	0107969b          	slliw	a3,a5,0x10
    80000f44:	0107d79b          	srliw	a5,a5,0x10
    80000f48:	8fd5                	or	a5,a5,a3
    80000f4a:	00fc2823          	sw	a5,16(s8)
    80000f4e:	85d2                	mv	a1,s4
    80000f50:	853a                	mv	a0,a4
    80000f52:	566050ef          	jal	ra,800064b8 <strcmp>
    80000f56:	e10d                	bnez	a0,80000f78 <fdt_scan_helper+0x190>
    80000f58:	00cba703          	lw	a4,12(s7)
    80000f5c:	0087179b          	slliw	a5,a4,0x8
    80000f60:	0087571b          	srliw	a4,a4,0x8
    80000f64:	8f65                	and	a4,a4,s1
    80000f66:	8fe1                	and	a5,a5,s0
    80000f68:	8fd9                	or	a5,a5,a4
    80000f6a:	0107971b          	slliw	a4,a5,0x10
    80000f6e:	0107d79b          	srliw	a5,a5,0x10
    80000f72:	8fd9                	or	a5,a5,a4
    80000f74:	00fc2a23          	sw	a5,20(s8)
    80000f78:	2d8d                	addiw	s11,s11,3
    80000f7a:	41fdd79b          	sraiw	a5,s11,0x1f
    80000f7e:	01e7d79b          	srliw	a5,a5,0x1e
    80000f82:	01b787bb          	addw	a5,a5,s11
    80000f86:	008b3703          	ld	a4,8(s6)
    80000f8a:	020b3583          	ld	a1,32(s6)
    80000f8e:	4027d79b          	sraiw	a5,a5,0x2
    80000f92:	278d                	addiw	a5,a5,3
    80000f94:	078a                	slli	a5,a5,0x2
    80000f96:	1808                	addi	a0,sp,48
    80000f98:	9bbe                	add	s7,s7,a5
    80000f9a:	9702                	jalr	a4
    80000f9c:	b54d                	j	80000e3e <fdt_scan_helper+0x56>
    80000f9e:	000d1b63          	bnez	s10,80000fb4 <fdt_scan_helper+0x1cc>
    80000fa2:	000c0963          	beqz	s8,80000fb4 <fdt_scan_helper+0x1cc>
    80000fa6:	010b3783          	ld	a5,16(s6)
    80000faa:	c789                	beqz	a5,80000fb4 <fdt_scan_helper+0x1cc>
    80000fac:	020b3583          	ld	a1,32(s6)
    80000fb0:	8562                	mv	a0,s8
    80000fb2:	9782                	jalr	a5
    80000fb4:	000b3783          	ld	a5,0(s6)
    80000fb8:	004b8513          	addi	a0,s7,4
    80000fbc:	f02a                	sd	a0,32(sp)
    80000fbe:	c791                	beqz	a5,80000fca <fdt_scan_helper+0x1e2>
    80000fc0:	020b3583          	ld	a1,32(s6)
    80000fc4:	0828                	addi	a0,sp,24
    80000fc6:	9782                	jalr	a5
    80000fc8:	7502                	ld	a0,32(sp)
    80000fca:	4d4050ef          	jal	ra,8000649e <strlen>
    80000fce:	9971                	andi	a0,a0,-4
    80000fd0:	0521                	addi	a0,a0,8
    80000fd2:	86da                	mv	a3,s6
    80000fd4:	0830                	addi	a2,sp,24
    80000fd6:	85ca                	mv	a1,s2
    80000fd8:	955e                	add	a0,a0,s7
    80000fda:	e0fff0ef          	jal	ra,80000de8 <fdt_scan_helper>
    80000fde:	018b3783          	ld	a5,24(s6)
    80000fe2:	8d2a                	mv	s10,a0
    80000fe4:	cb81                	beqz	a5,80000ff4 <fdt_scan_helper+0x20c>
    80000fe6:	020b3583          	ld	a1,32(s6)
    80000fea:	0828                	addi	a0,sp,24
    80000fec:	9782                	jalr	a5
    80000fee:	57fd                	li	a5,-1
    80000ff0:	00f50563          	beq	a0,a5,80000ffa <fdt_scan_helper+0x212>
    80000ff4:	8bea                	mv	s7,s10
    80000ff6:	4d05                	li	s10,1
    80000ff8:	b599                	j	80000e3e <fdt_scan_helper+0x56>
    80000ffa:	01ab8a63          	beq	s7,s10,8000100e <fdt_scan_helper+0x226>
    80000ffe:	040007b7          	lui	a5,0x4000
    80001002:	0b91                	addi	s7,s7,4
    80001004:	fefbae23          	sw	a5,-4(s7)
    80001008:	ff7d1de3          	bne	s10,s7,80001002 <fdt_scan_helper+0x21a>
    8000100c:	b7e5                	j	80000ff4 <fdt_scan_helper+0x20c>
    8000100e:	4d05                	li	s10,1
    80001010:	b53d                	j	80000e3e <fdt_scan_helper+0x56>
    80001012:	00006517          	auipc	a0,0x6
    80001016:	d1e50513          	addi	a0,a0,-738 # 80006d30 <softfloat_countLeadingZeros8+0x1b8>
    8000101a:	00006697          	auipc	a3,0x6
    8000101e:	efe68693          	addi	a3,a3,-258 # 80006f18 <softfloat_countLeadingZeros8+0x3a0>
    80001022:	03500613          	li	a2,53
    80001026:	00006597          	auipc	a1,0x6
    8000102a:	cda58593          	addi	a1,a1,-806 # 80006d00 <softfloat_countLeadingZeros8+0x188>
    8000102e:	46f000ef          	jal	ra,80001c9c <printm>
    80001032:	6541                	lui	a0,0x10
    80001034:	157d                	addi	a0,a0,-1
    80001036:	4d7000ef          	jal	ra,80001d0c <poweroff>

000000008000103a <mem_open>:
    8000103a:	852e                	mv	a0,a1
    8000103c:	4661                	li	a2,24
    8000103e:	4581                	li	a1,0
    80001040:	4180506f          	j	80006458 <memset>

0000000080001044 <hart_done>:
    80001044:	619c                	ld	a5,0(a1)
    80001046:	1141                	addi	sp,sp,-16
    80001048:	e406                	sd	ra,8(sp)
    8000104a:	00a78863          	beq	a5,a0,8000105a <hart_done+0x16>
    8000104e:	6998                	ld	a4,16(a1)
    80001050:	02a70c63          	beq	a4,a0,80001088 <hart_done+0x44>
    80001054:	60a2                	ld	ra,8(sp)
    80001056:	0141                	addi	sp,sp,16
    80001058:	8082                	ret
    8000105a:	4598                	lw	a4,8(a1)
    8000105c:	fe0759e3          	bgez	a4,8000104e <hart_done+0xa>
    80001060:	00006517          	auipc	a0,0x6
    80001064:	cd050513          	addi	a0,a0,-816 # 80006d30 <softfloat_countLeadingZeros8+0x1b8>
    80001068:	00006697          	auipc	a3,0x6
    8000106c:	ed868693          	addi	a3,a3,-296 # 80006f40 <softfloat_countLeadingZeros8+0x3c8>
    80001070:	10100613          	li	a2,257
    80001074:	00006597          	auipc	a1,0x6
    80001078:	c8c58593          	addi	a1,a1,-884 # 80006d00 <softfloat_countLeadingZeros8+0x188>
    8000107c:	421000ef          	jal	ra,80001c9c <printm>
    80001080:	6541                	lui	a0,0x10
    80001082:	157d                	addi	a0,a0,-1
    80001084:	489000ef          	jal	ra,80001d0c <poweroff>
    80001088:	d7f1                	beqz	a5,80001054 <hart_done+0x10>
    8000108a:	4dd8                	lw	a4,28(a1)
    8000108c:	cf1d                	beqz	a4,800010ca <hart_done+0x86>
    8000108e:	4d94                	lw	a3,24(a1)
    80001090:	4785                	li	a5,1
    80001092:	04f69763          	bne	a3,a5,800010e0 <hart_done+0x9c>
    80001096:	459c                	lw	a5,8(a1)
    80001098:	469d                	li	a3,7
    8000109a:	faf6cde3          	blt	a3,a5,80001054 <hart_done+0x10>
    8000109e:	00009697          	auipc	a3,0x9
    800010a2:	f6268693          	addi	a3,a3,-158 # 8000a000 <hart_phandles>
    800010a6:	078a                	slli	a5,a5,0x2
    800010a8:	97b6                	add	a5,a5,a3
    800010aa:	c398                	sw	a4,0(a5)
    800010ac:	4588                	lw	a0,8(a1)
    800010ae:	00012717          	auipc	a4,0x12
    800010b2:	f7a70713          	addi	a4,a4,-134 # 80013028 <hart_mask>
    800010b6:	6314                	ld	a3,0(a4)
    800010b8:	4785                	li	a5,1
    800010ba:	00a797bb          	sllw	a5,a5,a0
    800010be:	60a2                	ld	ra,8(sp)
    800010c0:	8fd5                	or	a5,a5,a3
    800010c2:	e31c                	sd	a5,0(a4)
    800010c4:	0141                	addi	sp,sp,16
    800010c6:	77d0006f          	j	80002042 <hls_init>
    800010ca:	00006517          	auipc	a0,0x6
    800010ce:	c6650513          	addi	a0,a0,-922 # 80006d30 <softfloat_countLeadingZeros8+0x1b8>
    800010d2:	00006697          	auipc	a3,0x6
    800010d6:	e7e68693          	addi	a3,a3,-386 # 80006f50 <softfloat_countLeadingZeros8+0x3d8>
    800010da:	10500613          	li	a2,261
    800010de:	bf59                	j	80001074 <hart_done+0x30>
    800010e0:	00006517          	auipc	a0,0x6
    800010e4:	c5050513          	addi	a0,a0,-944 # 80006d30 <softfloat_countLeadingZeros8+0x1b8>
    800010e8:	00006697          	auipc	a3,0x6
    800010ec:	e8068693          	addi	a3,a3,-384 # 80006f68 <softfloat_countLeadingZeros8+0x3f0>
    800010f0:	10600613          	li	a2,262
    800010f4:	b741                	j	80001074 <hart_done+0x30>

00000000800010f6 <hart_filter_done>:
    800010f6:	419c                	lw	a5,0(a1)
    800010f8:	c7e1                	beqz	a5,800011c0 <hart_filter_done+0xca>
    800010fa:	1101                	addi	sp,sp,-32
    800010fc:	e426                	sd	s1,8(sp)
    800010fe:	6584                	ld	s1,8(a1)
    80001100:	e822                	sd	s0,16(sp)
    80001102:	ec06                	sd	ra,24(sp)
    80001104:	e04a                	sd	s2,0(sp)
    80001106:	842e                	mv	s0,a1
    80001108:	cccd                	beqz	s1,800011c2 <hart_filter_done+0xcc>
    8000110a:	41dc                	lw	a5,4(a1)
    8000110c:	0c07cf63          	bltz	a5,800011ea <hart_filter_done+0xf4>
    80001110:	0105b903          	ld	s2,16(a1)
    80001114:	04090363          	beqz	s2,8000115a <hart_filter_done+0x64>
    80001118:	00006597          	auipc	a1,0x6
    8000111c:	e9058593          	addi	a1,a1,-368 # 80006fa8 <softfloat_countLeadingZeros8+0x430>
    80001120:	8526                	mv	a0,s1
    80001122:	396050ef          	jal	ra,800064b8 <strcmp>
    80001126:	e915                	bnez	a0,8000115a <hart_filter_done+0x64>
    80001128:	00006597          	auipc	a1,0x6
    8000112c:	e8858593          	addi	a1,a1,-376 # 80006fb0 <softfloat_countLeadingZeros8+0x438>
    80001130:	854a                	mv	a0,s2
    80001132:	386050ef          	jal	ra,800064b8 <strcmp>
    80001136:	cd3d                	beqz	a0,800011b4 <hart_filter_done+0xbe>
    80001138:	00006597          	auipc	a1,0x6
    8000113c:	e8858593          	addi	a1,a1,-376 # 80006fc0 <softfloat_countLeadingZeros8+0x448>
    80001140:	854a                	mv	a0,s2
    80001142:	376050ef          	jal	ra,800064b8 <strcmp>
    80001146:	c53d                	beqz	a0,800011b4 <hart_filter_done+0xbe>
    80001148:	85a6                	mv	a1,s1
    8000114a:	864a                	mv	a2,s2
    8000114c:	00006517          	auipc	a0,0x6
    80001150:	e8450513          	addi	a0,a0,-380 # 80006fd0 <softfloat_countLeadingZeros8+0x458>
    80001154:	349000ef          	jal	ra,80001c9c <printm>
    80001158:	6404                	ld	s1,8(s0)
    8000115a:	00006797          	auipc	a5,0x6
    8000115e:	ebe78793          	addi	a5,a5,-322 # 80007018 <softfloat_countLeadingZeros8+0x4a0>
    80001162:	0037c603          	lbu	a2,3(a5)
    80001166:	0047c683          	lbu	a3,4(a5)
    8000116a:	0057c703          	lbu	a4,5(a5)
    8000116e:	0007c803          	lbu	a6,0(a5)
    80001172:	0017c503          	lbu	a0,1(a5)
    80001176:	0027c583          	lbu	a1,2(a5)
    8000117a:	0067c783          	lbu	a5,6(a5)
    8000117e:	00e482a3          	sb	a4,5(s1)
    80001182:	01048023          	sb	a6,0(s1)
    80001186:	00a480a3          	sb	a0,1(s1)
    8000118a:	00b48123          	sb	a1,2(s1)
    8000118e:	00c481a3          	sb	a2,3(s1)
    80001192:	00d48223          	sb	a3,4(s1)
    80001196:	00f48323          	sb	a5,6(s1)
    8000119a:	641c                	ld	a5,8(s0)
    8000119c:	6c14                	ld	a3,24(s0)
    8000119e:	07000737          	lui	a4,0x7000
    800011a2:	fee7ac23          	sw	a4,-8(a5)
    800011a6:	4050                	lw	a2,4(s0)
    800011a8:	629c                	ld	a5,0(a3)
    800011aa:	4705                	li	a4,1
    800011ac:	00c7173b          	sllw	a4,a4,a2
    800011b0:	8fd9                	or	a5,a5,a4
    800011b2:	e29c                	sd	a5,0(a3)
    800011b4:	60e2                	ld	ra,24(sp)
    800011b6:	6442                	ld	s0,16(sp)
    800011b8:	64a2                	ld	s1,8(sp)
    800011ba:	6902                	ld	s2,0(sp)
    800011bc:	6105                	addi	sp,sp,32
    800011be:	8082                	ret
    800011c0:	8082                	ret
    800011c2:	00006517          	auipc	a0,0x6
    800011c6:	b6e50513          	addi	a0,a0,-1170 # 80006d30 <softfloat_countLeadingZeros8+0x1b8>
    800011ca:	00006697          	auipc	a3,0x6
    800011ce:	db668693          	addi	a3,a3,-586 # 80006f80 <softfloat_countLeadingZeros8+0x408>
    800011d2:	2a900613          	li	a2,681
    800011d6:	00006597          	auipc	a1,0x6
    800011da:	b2a58593          	addi	a1,a1,-1238 # 80006d00 <softfloat_countLeadingZeros8+0x188>
    800011de:	2bf000ef          	jal	ra,80001c9c <printm>
    800011e2:	6541                	lui	a0,0x10
    800011e4:	157d                	addi	a0,a0,-1
    800011e6:	327000ef          	jal	ra,80001d0c <poweroff>
    800011ea:	00006517          	auipc	a0,0x6
    800011ee:	b4650513          	addi	a0,a0,-1210 # 80006d30 <softfloat_countLeadingZeros8+0x1b8>
    800011f2:	00006697          	auipc	a3,0x6
    800011f6:	d9e68693          	addi	a3,a3,-610 # 80006f90 <softfloat_countLeadingZeros8+0x418>
    800011fa:	2aa00613          	li	a2,682
    800011fe:	00006597          	auipc	a1,0x6
    80001202:	b0258593          	addi	a1,a1,-1278 # 80006d00 <softfloat_countLeadingZeros8+0x188>
    80001206:	297000ef          	jal	ra,80001c9c <printm>
    8000120a:	6541                	lui	a0,0x10
    8000120c:	157d                	addi	a0,a0,-1
    8000120e:	2ff000ef          	jal	ra,80001d0c <poweroff>

0000000080001212 <chosen_prop>:
    80001212:	619c                	ld	a5,0(a1)
    80001214:	10078163          	beqz	a5,80001316 <chosen_prop+0x104>
    80001218:	1101                	addi	sp,sp,-32
    8000121a:	e04a                	sd	s2,0(sp)
    8000121c:	00853903          	ld	s2,8(a0) # 10008 <MEM_START-0x7ffefff8>
    80001220:	e822                	sd	s0,16(sp)
    80001222:	e426                	sd	s1,8(sp)
    80001224:	842e                	mv	s0,a1
    80001226:	84aa                	mv	s1,a0
    80001228:	00006597          	auipc	a1,0x6
    8000122c:	df858593          	addi	a1,a1,-520 # 80007020 <softfloat_countLeadingZeros8+0x4a8>
    80001230:	854a                	mv	a0,s2
    80001232:	ec06                	sd	ra,24(sp)
    80001234:	284050ef          	jal	ra,800064b8 <strcmp>
    80001238:	e525                	bnez	a0,800012a0 <chosen_prop+0x8e>
    8000123a:	609c                	ld	a5,0(s1)
    8000123c:	6890                	ld	a2,16(s1)
    8000123e:	639c                	ld	a5,0(a5)
    80001240:	4b9c                	lw	a5,16(a5)
    80001242:	0cf05e63          	blez	a5,8000131e <chosen_prop+0x10c>
    80001246:	fff7859b          	addiw	a1,a5,-1
    8000124a:	1582                	slli	a1,a1,0x20
    8000124c:	9181                	srli	a1,a1,0x20
    8000124e:	0585                	addi	a1,a1,1
    80001250:	058a                	slli	a1,a1,0x2
    80001252:	ff010837          	lui	a6,0xff010
    80001256:	00ff0537          	lui	a0,0xff0
    8000125a:	95b2                	add	a1,a1,a2
    8000125c:	4781                	li	a5,0
    8000125e:	f0080813          	addi	a6,a6,-256 # ffffffffff00ff00 <_payload_end+0xffffffff7ec3815c>
    80001262:	0ff50513          	addi	a0,a0,255 # ff00ff <MEM_START-0x7f00ff01>
    80001266:	4218                	lw	a4,0(a2)
    80001268:	02079693          	slli	a3,a5,0x20
    8000126c:	0611                	addi	a2,a2,4
    8000126e:	0087179b          	slliw	a5,a4,0x8
    80001272:	0087571b          	srliw	a4,a4,0x8
    80001276:	8f69                	and	a4,a4,a0
    80001278:	0107f7b3          	and	a5,a5,a6
    8000127c:	8fd9                	or	a5,a5,a4
    8000127e:	0107971b          	slliw	a4,a5,0x10
    80001282:	0107d79b          	srliw	a5,a5,0x10
    80001286:	8fd9                	or	a5,a5,a4
    80001288:	1782                	slli	a5,a5,0x20
    8000128a:	9381                	srli	a5,a5,0x20
    8000128c:	97b6                	add	a5,a5,a3
    8000128e:	fcb61ce3          	bne	a2,a1,80001266 <chosen_prop+0x54>
    80001292:	e41c                	sd	a5,8(s0)
    80001294:	60e2                	ld	ra,24(sp)
    80001296:	6442                	ld	s0,16(sp)
    80001298:	64a2                	ld	s1,8(sp)
    8000129a:	6902                	ld	s2,0(sp)
    8000129c:	6105                	addi	sp,sp,32
    8000129e:	8082                	ret
    800012a0:	00006597          	auipc	a1,0x6
    800012a4:	d9858593          	addi	a1,a1,-616 # 80007038 <softfloat_countLeadingZeros8+0x4c0>
    800012a8:	854a                	mv	a0,s2
    800012aa:	20e050ef          	jal	ra,800064b8 <strcmp>
    800012ae:	f17d                	bnez	a0,80001294 <chosen_prop+0x82>
    800012b0:	609c                	ld	a5,0(s1)
    800012b2:	6890                	ld	a2,16(s1)
    800012b4:	639c                	ld	a5,0(a5)
    800012b6:	4b9c                	lw	a5,16(a5)
    800012b8:	06f05063          	blez	a5,80001318 <chosen_prop+0x106>
    800012bc:	fff7859b          	addiw	a1,a5,-1
    800012c0:	1582                	slli	a1,a1,0x20
    800012c2:	9181                	srli	a1,a1,0x20
    800012c4:	0585                	addi	a1,a1,1
    800012c6:	058a                	slli	a1,a1,0x2
    800012c8:	ff010837          	lui	a6,0xff010
    800012cc:	00ff0537          	lui	a0,0xff0
    800012d0:	95b2                	add	a1,a1,a2
    800012d2:	4781                	li	a5,0
    800012d4:	f0080813          	addi	a6,a6,-256 # ffffffffff00ff00 <_payload_end+0xffffffff7ec3815c>
    800012d8:	0ff50513          	addi	a0,a0,255 # ff00ff <MEM_START-0x7f00ff01>
    800012dc:	4218                	lw	a4,0(a2)
    800012de:	02079693          	slli	a3,a5,0x20
    800012e2:	0611                	addi	a2,a2,4
    800012e4:	0087179b          	slliw	a5,a4,0x8
    800012e8:	0087571b          	srliw	a4,a4,0x8
    800012ec:	8f69                	and	a4,a4,a0
    800012ee:	0107f7b3          	and	a5,a5,a6
    800012f2:	8fd9                	or	a5,a5,a4
    800012f4:	0107971b          	slliw	a4,a5,0x10
    800012f8:	0107d79b          	srliw	a5,a5,0x10
    800012fc:	8fd9                	or	a5,a5,a4
    800012fe:	1782                	slli	a5,a5,0x20
    80001300:	9381                	srli	a5,a5,0x20
    80001302:	97b6                	add	a5,a5,a3
    80001304:	fcb61ce3          	bne	a2,a1,800012dc <chosen_prop+0xca>
    80001308:	e81c                	sd	a5,16(s0)
    8000130a:	60e2                	ld	ra,24(sp)
    8000130c:	6442                	ld	s0,16(sp)
    8000130e:	64a2                	ld	s1,8(sp)
    80001310:	6902                	ld	s2,0(sp)
    80001312:	6105                	addi	sp,sp,32
    80001314:	8082                	ret
    80001316:	8082                	ret
    80001318:	4781                	li	a5,0
    8000131a:	e81c                	sd	a5,16(s0)
    8000131c:	b7fd                	j	8000130a <chosen_prop+0xf8>
    8000131e:	4781                	li	a5,0
    80001320:	bf8d                	j	80001292 <chosen_prop+0x80>

0000000080001322 <fdt_scan>:
    80001322:	4118                	lw	a4,0(a0)
    80001324:	00ff0637          	lui	a2,0xff0
    80001328:	ff010837          	lui	a6,0xff010
    8000132c:	0087579b          	srliw	a5,a4,0x8
    80001330:	0ff60613          	addi	a2,a2,255 # ff00ff <MEM_START-0x7f00ff01>
    80001334:	0087171b          	slliw	a4,a4,0x8
    80001338:	f0080813          	addi	a6,a6,-256 # ffffffffff00ff00 <_payload_end+0xffffffff7ec3815c>
    8000133c:	01077733          	and	a4,a4,a6
    80001340:	8ff1                	and	a5,a5,a2
    80001342:	8fd9                	or	a5,a5,a4
    80001344:	0107971b          	slliw	a4,a5,0x10
    80001348:	0107d79b          	srliw	a5,a5,0x10
    8000134c:	8fd9                	or	a5,a5,a4
    8000134e:	d00e0737          	lui	a4,0xd00e0
    80001352:	2781                	sext.w	a5,a5
    80001354:	eed70713          	addi	a4,a4,-275 # ffffffffd00dfeed <_payload_end+0xffffffff4fd08149>
    80001358:	02e79463          	bne	a5,a4,80001380 <fdt_scan+0x5e>
    8000135c:	4d18                	lw	a4,24(a0)
    8000135e:	46c5                	li	a3,17
    80001360:	0087179b          	slliw	a5,a4,0x8
    80001364:	0087571b          	srliw	a4,a4,0x8
    80001368:	8f71                	and	a4,a4,a2
    8000136a:	0107f7b3          	and	a5,a5,a6
    8000136e:	8fd9                	or	a5,a5,a4
    80001370:	0107971b          	slliw	a4,a5,0x10
    80001374:	0107d79b          	srliw	a5,a5,0x10
    80001378:	8fd9                	or	a5,a5,a4
    8000137a:	2781                	sext.w	a5,a5
    8000137c:	00f6f363          	bgeu	a3,a5,80001382 <fdt_scan+0x60>
    80001380:	8082                	ret
    80001382:	455c                	lw	a5,12(a0)
    80001384:	00852883          	lw	a7,8(a0)
    80001388:	86ae                	mv	a3,a1
    8000138a:	0087971b          	slliw	a4,a5,0x8
    8000138e:	0087d59b          	srliw	a1,a5,0x8
    80001392:	0088979b          	slliw	a5,a7,0x8
    80001396:	0088d89b          	srliw	a7,a7,0x8
    8000139a:	01077733          	and	a4,a4,a6
    8000139e:	8df1                	and	a1,a1,a2
    800013a0:	0107f833          	and	a6,a5,a6
    800013a4:	00c8f633          	and	a2,a7,a2
    800013a8:	00b767b3          	or	a5,a4,a1
    800013ac:	00c86633          	or	a2,a6,a2
    800013b0:	0107959b          	slliw	a1,a5,0x10
    800013b4:	0106171b          	slliw	a4,a2,0x10
    800013b8:	0107d79b          	srliw	a5,a5,0x10
    800013bc:	0106561b          	srliw	a2,a2,0x10
    800013c0:	8e59                	or	a2,a2,a4
    800013c2:	8fcd                	or	a5,a5,a1
    800013c4:	02061713          	slli	a4,a2,0x20
    800013c8:	02079593          	slli	a1,a5,0x20
    800013cc:	9181                	srli	a1,a1,0x20
    800013ce:	9301                	srli	a4,a4,0x20
    800013d0:	95aa                	add	a1,a1,a0
    800013d2:	4601                	li	a2,0
    800013d4:	953a                	add	a0,a0,a4
    800013d6:	bc09                	j	80000de8 <fdt_scan_helper>

00000000800013d8 <fdt_size>:
    800013d8:	4118                	lw	a4,0(a0)
    800013da:	ff010637          	lui	a2,0xff010
    800013de:	00ff06b7          	lui	a3,0xff0
    800013e2:	0087179b          	slliw	a5,a4,0x8
    800013e6:	f0060613          	addi	a2,a2,-256 # ffffffffff00ff00 <_payload_end+0xffffffff7ec3815c>
    800013ea:	0087571b          	srliw	a4,a4,0x8
    800013ee:	0ff68693          	addi	a3,a3,255 # ff00ff <MEM_START-0x7f00ff01>
    800013f2:	8f75                	and	a4,a4,a3
    800013f4:	8ff1                	and	a5,a5,a2
    800013f6:	8fd9                	or	a5,a5,a4
    800013f8:	0107971b          	slliw	a4,a5,0x10
    800013fc:	0107d79b          	srliw	a5,a5,0x10
    80001400:	8fd9                	or	a5,a5,a4
    80001402:	d00e0737          	lui	a4,0xd00e0
    80001406:	2781                	sext.w	a5,a5
    80001408:	eed70713          	addi	a4,a4,-275 # ffffffffd00dfeed <_payload_end+0xffffffff4fd08149>
    8000140c:	85aa                	mv	a1,a0
    8000140e:	04e79363          	bne	a5,a4,80001454 <fdt_size+0x7c>
    80001412:	4d18                	lw	a4,24(a0)
    80001414:	4845                	li	a6,17
    80001416:	4501                	li	a0,0
    80001418:	0087179b          	slliw	a5,a4,0x8
    8000141c:	0087571b          	srliw	a4,a4,0x8
    80001420:	8f75                	and	a4,a4,a3
    80001422:	8ff1                	and	a5,a5,a2
    80001424:	8fd9                	or	a5,a5,a4
    80001426:	0107971b          	slliw	a4,a5,0x10
    8000142a:	0107d79b          	srliw	a5,a5,0x10
    8000142e:	8fd9                	or	a5,a5,a4
    80001430:	2781                	sext.w	a5,a5
    80001432:	02f86263          	bltu	a6,a5,80001456 <fdt_size+0x7e>
    80001436:	41dc                	lw	a5,4(a1)
    80001438:	0087951b          	slliw	a0,a5,0x8
    8000143c:	0087d79b          	srliw	a5,a5,0x8
    80001440:	8e69                	and	a2,a2,a0
    80001442:	8efd                	and	a3,a3,a5
    80001444:	8ed1                	or	a3,a3,a2
    80001446:	0106951b          	slliw	a0,a3,0x10
    8000144a:	0106d69b          	srliw	a3,a3,0x10
    8000144e:	8d55                	or	a0,a0,a3
    80001450:	2501                	sext.w	a0,a0
    80001452:	8082                	ret
    80001454:	4501                	li	a0,0
    80001456:	8082                	ret

0000000080001458 <fdt_get_address>:
    80001458:	491c                	lw	a5,16(a0)
    8000145a:	00063023          	sd	zero,0(a2)
    8000145e:	06f05363          	blez	a5,800014c4 <fdt_get_address+0x6c>
    80001462:	fff7831b          	addiw	t1,a5,-1
    80001466:	02031893          	slli	a7,t1,0x20
    8000146a:	0208d893          	srli	a7,a7,0x20
    8000146e:	0885                	addi	a7,a7,1
    80001470:	088a                	slli	a7,a7,0x2
    80001472:	ff010eb7          	lui	t4,0xff010
    80001476:	00ff0e37          	lui	t3,0xff0
    8000147a:	98ae                	add	a7,a7,a1
    8000147c:	882e                	mv	a6,a1
    8000147e:	4781                	li	a5,0
    80001480:	f00e8e93          	addi	t4,t4,-256 # ffffffffff00ff00 <_payload_end+0xffffffff7ec3815c>
    80001484:	0ffe0e13          	addi	t3,t3,255 # ff00ff <MEM_START-0x7f00ff01>
    80001488:	00082703          	lw	a4,0(a6)
    8000148c:	02079693          	slli	a3,a5,0x20
    80001490:	0811                	addi	a6,a6,4
    80001492:	0087179b          	slliw	a5,a4,0x8
    80001496:	0087571b          	srliw	a4,a4,0x8
    8000149a:	01c77733          	and	a4,a4,t3
    8000149e:	01d7f7b3          	and	a5,a5,t4
    800014a2:	8fd9                	or	a5,a5,a4
    800014a4:	0107971b          	slliw	a4,a5,0x10
    800014a8:	0107d79b          	srliw	a5,a5,0x10
    800014ac:	8fd9                	or	a5,a5,a4
    800014ae:	1782                	slli	a5,a5,0x20
    800014b0:	9381                	srli	a5,a5,0x20
    800014b2:	97b6                	add	a5,a5,a3
    800014b4:	fd181ae3          	bne	a6,a7,80001488 <fdt_get_address+0x30>
    800014b8:	0305                	addi	t1,t1,1
    800014ba:	030a                	slli	t1,t1,0x2
    800014bc:	00658533          	add	a0,a1,t1
    800014c0:	e21c                	sd	a5,0(a2)
    800014c2:	8082                	ret
    800014c4:	852e                	mv	a0,a1
    800014c6:	8082                	ret

00000000800014c8 <fdt_get_size>:
    800014c8:	495c                	lw	a5,20(a0)
    800014ca:	00063023          	sd	zero,0(a2)
    800014ce:	06f05363          	blez	a5,80001534 <fdt_get_size+0x6c>
    800014d2:	fff7831b          	addiw	t1,a5,-1
    800014d6:	02031893          	slli	a7,t1,0x20
    800014da:	0208d893          	srli	a7,a7,0x20
    800014de:	0885                	addi	a7,a7,1
    800014e0:	088a                	slli	a7,a7,0x2
    800014e2:	ff010eb7          	lui	t4,0xff010
    800014e6:	00ff0e37          	lui	t3,0xff0
    800014ea:	98ae                	add	a7,a7,a1
    800014ec:	882e                	mv	a6,a1
    800014ee:	4781                	li	a5,0
    800014f0:	f00e8e93          	addi	t4,t4,-256 # ffffffffff00ff00 <_payload_end+0xffffffff7ec3815c>
    800014f4:	0ffe0e13          	addi	t3,t3,255 # ff00ff <MEM_START-0x7f00ff01>
    800014f8:	00082703          	lw	a4,0(a6)
    800014fc:	02079693          	slli	a3,a5,0x20
    80001500:	0811                	addi	a6,a6,4
    80001502:	0087179b          	slliw	a5,a4,0x8
    80001506:	0087571b          	srliw	a4,a4,0x8
    8000150a:	01c77733          	and	a4,a4,t3
    8000150e:	01d7f7b3          	and	a5,a5,t4
    80001512:	8fd9                	or	a5,a5,a4
    80001514:	0107971b          	slliw	a4,a5,0x10
    80001518:	0107d79b          	srliw	a5,a5,0x10
    8000151c:	8fd9                	or	a5,a5,a4
    8000151e:	1782                	slli	a5,a5,0x20
    80001520:	9381                	srli	a5,a5,0x20
    80001522:	97b6                	add	a5,a5,a3
    80001524:	fd181ae3          	bne	a6,a7,800014f8 <fdt_get_size+0x30>
    80001528:	0305                	addi	t1,t1,1
    8000152a:	030a                	slli	t1,t1,0x2
    8000152c:	00658533          	add	a0,a1,t1
    80001530:	e21c                	sd	a5,0(a2)
    80001532:	8082                	ret
    80001534:	852e                	mv	a0,a1
    80001536:	8082                	ret

0000000080001538 <fdt_get_value>:
    80001538:	691c                	ld	a5,16(a0)
    8000153a:	1582                	slli	a1,a1,0x20
    8000153c:	81f9                	srli	a1,a1,0x1e
    8000153e:	95be                	add	a1,a1,a5
    80001540:	4198                	lw	a4,0(a1)
    80001542:	ff010537          	lui	a0,0xff010
    80001546:	f0050513          	addi	a0,a0,-256 # ffffffffff00ff00 <_payload_end+0xffffffff7ec3815c>
    8000154a:	0087179b          	slliw	a5,a4,0x8
    8000154e:	8fe9                	and	a5,a5,a0
    80001550:	00ff0537          	lui	a0,0xff0
    80001554:	0ff50513          	addi	a0,a0,255 # ff00ff <MEM_START-0x7f00ff01>
    80001558:	0087571b          	srliw	a4,a4,0x8
    8000155c:	8f69                	and	a4,a4,a0
    8000155e:	8fd9                	or	a5,a5,a4
    80001560:	0107951b          	slliw	a0,a5,0x10
    80001564:	0107d79b          	srliw	a5,a5,0x10
    80001568:	8d5d                	or	a0,a0,a5
    8000156a:	2501                	sext.w	a0,a0
    8000156c:	8082                	ret

000000008000156e <fdt_string_list_index>:
    8000156e:	7179                	addi	sp,sp,-48
    80001570:	4d1c                	lw	a5,24(a0)
    80001572:	f022                	sd	s0,32(sp)
    80001574:	6900                	ld	s0,16(a0)
    80001576:	e44e                	sd	s3,8(sp)
    80001578:	f406                	sd	ra,40(sp)
    8000157a:	ec26                	sd	s1,24(sp)
    8000157c:	e84a                	sd	s2,16(sp)
    8000157e:	00f409b3          	add	s3,s0,a5
    80001582:	02f05d63          	blez	a5,800015bc <fdt_string_list_index+0x4e>
    80001586:	892e                	mv	s2,a1
    80001588:	4481                	li	s1,0
    8000158a:	a811                	j	8000159e <fdt_string_list_index+0x30>
    8000158c:	713040ef          	jal	ra,8000649e <strlen>
    80001590:	0505                	addi	a0,a0,1
    80001592:	942a                	add	s0,s0,a0
    80001594:	408987b3          	sub	a5,s3,s0
    80001598:	2485                	addiw	s1,s1,1
    8000159a:	02f05163          	blez	a5,800015bc <fdt_string_list_index+0x4e>
    8000159e:	85ca                	mv	a1,s2
    800015a0:	8522                	mv	a0,s0
    800015a2:	717040ef          	jal	ra,800064b8 <strcmp>
    800015a6:	87aa                	mv	a5,a0
    800015a8:	8522                	mv	a0,s0
    800015aa:	f3ed                	bnez	a5,8000158c <fdt_string_list_index+0x1e>
    800015ac:	70a2                	ld	ra,40(sp)
    800015ae:	7402                	ld	s0,32(sp)
    800015b0:	6942                	ld	s2,16(sp)
    800015b2:	69a2                	ld	s3,8(sp)
    800015b4:	8526                	mv	a0,s1
    800015b6:	64e2                	ld	s1,24(sp)
    800015b8:	6145                	addi	sp,sp,48
    800015ba:	8082                	ret
    800015bc:	70a2                	ld	ra,40(sp)
    800015be:	7402                	ld	s0,32(sp)
    800015c0:	54fd                	li	s1,-1
    800015c2:	6942                	ld	s2,16(sp)
    800015c4:	69a2                	ld	s3,8(sp)
    800015c6:	8526                	mv	a0,s1
    800015c8:	64e2                	ld	s1,24(sp)
    800015ca:	6145                	addi	sp,sp,48
    800015cc:	8082                	ret

00000000800015ce <clint_prop>:
    800015ce:	1101                	addi	sp,sp,-32
    800015d0:	e04a                	sd	s2,0(sp)
    800015d2:	00853903          	ld	s2,8(a0)
    800015d6:	e822                	sd	s0,16(sp)
    800015d8:	e426                	sd	s1,8(sp)
    800015da:	842e                	mv	s0,a1
    800015dc:	84aa                	mv	s1,a0
    800015de:	00006597          	auipc	a1,0x6
    800015e2:	a7258593          	addi	a1,a1,-1422 # 80007050 <softfloat_countLeadingZeros8+0x4d8>
    800015e6:	854a                	mv	a0,s2
    800015e8:	ec06                	sd	ra,24(sp)
    800015ea:	6cf040ef          	jal	ra,800064b8 <strcmp>
    800015ee:	e115                	bnez	a0,80001612 <clint_prop+0x44>
    800015f0:	00005597          	auipc	a1,0x5
    800015f4:	6e058593          	addi	a1,a1,1760 # 80006cd0 <softfloat_countLeadingZeros8+0x158>
    800015f8:	8526                	mv	a0,s1
    800015fa:	f75ff0ef          	jal	ra,8000156e <fdt_string_list_index>
    800015fe:	00054a63          	bltz	a0,80001612 <clint_prop+0x44>
    80001602:	4785                	li	a5,1
    80001604:	60e2                	ld	ra,24(sp)
    80001606:	c01c                	sw	a5,0(s0)
    80001608:	6442                	ld	s0,16(sp)
    8000160a:	64a2                	ld	s1,8(sp)
    8000160c:	6902                	ld	s2,0(sp)
    8000160e:	6105                	addi	sp,sp,32
    80001610:	8082                	ret
    80001612:	00006597          	auipc	a1,0x6
    80001616:	87e58593          	addi	a1,a1,-1922 # 80006e90 <softfloat_countLeadingZeros8+0x318>
    8000161a:	854a                	mv	a0,s2
    8000161c:	69d040ef          	jal	ra,800064b8 <strcmp>
    80001620:	e535                	bnez	a0,8000168c <clint_prop+0xbe>
    80001622:	609c                	ld	a5,0(s1)
    80001624:	6894                	ld	a3,16(s1)
    80001626:	639c                	ld	a5,0(a5)
    80001628:	00043423          	sd	zero,8(s0)
    8000162c:	4b9c                	lw	a5,16(a5)
    8000162e:	04f05963          	blez	a5,80001680 <clint_prop+0xb2>
    80001632:	fff7859b          	addiw	a1,a5,-1
    80001636:	1582                	slli	a1,a1,0x20
    80001638:	9181                	srli	a1,a1,0x20
    8000163a:	0585                	addi	a1,a1,1
    8000163c:	058a                	slli	a1,a1,0x2
    8000163e:	ff010837          	lui	a6,0xff010
    80001642:	00ff0537          	lui	a0,0xff0
    80001646:	95b6                	add	a1,a1,a3
    80001648:	4781                	li	a5,0
    8000164a:	f0080813          	addi	a6,a6,-256 # ffffffffff00ff00 <_payload_end+0xffffffff7ec3815c>
    8000164e:	0ff50513          	addi	a0,a0,255 # ff00ff <MEM_START-0x7f00ff01>
    80001652:	4298                	lw	a4,0(a3)
    80001654:	02079613          	slli	a2,a5,0x20
    80001658:	0691                	addi	a3,a3,4
    8000165a:	0087179b          	slliw	a5,a4,0x8
    8000165e:	0087571b          	srliw	a4,a4,0x8
    80001662:	8f69                	and	a4,a4,a0
    80001664:	0107f7b3          	and	a5,a5,a6
    80001668:	8fd9                	or	a5,a5,a4
    8000166a:	0107971b          	slliw	a4,a5,0x10
    8000166e:	0107d79b          	srliw	a5,a5,0x10
    80001672:	8fd9                	or	a5,a5,a4
    80001674:	1782                	slli	a5,a5,0x20
    80001676:	9381                	srli	a5,a5,0x20
    80001678:	97b2                	add	a5,a5,a2
    8000167a:	fcb69ce3          	bne	a3,a1,80001652 <clint_prop+0x84>
    8000167e:	e41c                	sd	a5,8(s0)
    80001680:	60e2                	ld	ra,24(sp)
    80001682:	6442                	ld	s0,16(sp)
    80001684:	64a2                	ld	s1,8(sp)
    80001686:	6902                	ld	s2,0(sp)
    80001688:	6105                	addi	sp,sp,32
    8000168a:	8082                	ret
    8000168c:	00006597          	auipc	a1,0x6
    80001690:	9d458593          	addi	a1,a1,-1580 # 80007060 <softfloat_countLeadingZeros8+0x4e8>
    80001694:	854a                	mv	a0,s2
    80001696:	623040ef          	jal	ra,800064b8 <strcmp>
    8000169a:	cd21                	beqz	a0,800016f2 <clint_prop+0x124>
    8000169c:	00006597          	auipc	a1,0x6
    800016a0:	9dc58593          	addi	a1,a1,-1572 # 80007078 <softfloat_countLeadingZeros8+0x500>
    800016a4:	854a                	mv	a0,s2
    800016a6:	613040ef          	jal	ra,800064b8 <strcmp>
    800016aa:	f979                	bnez	a0,80001680 <clint_prop+0xb2>
    800016ac:	689c                	ld	a5,16(s1)
    800016ae:	ff0106b7          	lui	a3,0xff010
    800016b2:	f0068693          	addi	a3,a3,-256 # ffffffffff00ff00 <_payload_end+0xffffffff7ec3815c>
    800016b6:	4398                	lw	a4,0(a5)
    800016b8:	60e2                	ld	ra,24(sp)
    800016ba:	64a2                	ld	s1,8(sp)
    800016bc:	0087179b          	slliw	a5,a4,0x8
    800016c0:	8ff5                	and	a5,a5,a3
    800016c2:	00ff06b7          	lui	a3,0xff0
    800016c6:	0087571b          	srliw	a4,a4,0x8
    800016ca:	0ff68693          	addi	a3,a3,255 # ff00ff <MEM_START-0x7f00ff01>
    800016ce:	8f75                	and	a4,a4,a3
    800016d0:	8fd9                	or	a5,a5,a4
    800016d2:	0107959b          	slliw	a1,a5,0x10
    800016d6:	0107d79b          	srliw	a5,a5,0x10
    800016da:	8fcd                	or	a5,a5,a1
    800016dc:	0007859b          	sext.w	a1,a5
    800016e0:	d00c                	sw	a1,32(s0)
    800016e2:	6442                	ld	s0,16(sp)
    800016e4:	6902                	ld	s2,0(sp)
    800016e6:	00006517          	auipc	a0,0x6
    800016ea:	9aa50513          	addi	a0,a0,-1622 # 80007090 <softfloat_countLeadingZeros8+0x518>
    800016ee:	6105                	addi	sp,sp,32
    800016f0:	a375                	j	80001c9c <printm>
    800016f2:	6898                	ld	a4,16(s1)
    800016f4:	4c9c                	lw	a5,24(s1)
    800016f6:	60e2                	ld	ra,24(sp)
    800016f8:	e818                	sd	a4,16(s0)
    800016fa:	cc1c                	sw	a5,24(s0)
    800016fc:	6442                	ld	s0,16(sp)
    800016fe:	64a2                	ld	s1,8(sp)
    80001700:	6902                	ld	s2,0(sp)
    80001702:	6105                	addi	sp,sp,32
    80001704:	8082                	ret

0000000080001706 <plic_prop>:
    80001706:	1101                	addi	sp,sp,-32
    80001708:	e04a                	sd	s2,0(sp)
    8000170a:	00853903          	ld	s2,8(a0)
    8000170e:	e822                	sd	s0,16(sp)
    80001710:	e426                	sd	s1,8(sp)
    80001712:	842e                	mv	s0,a1
    80001714:	84aa                	mv	s1,a0
    80001716:	00006597          	auipc	a1,0x6
    8000171a:	93a58593          	addi	a1,a1,-1734 # 80007050 <softfloat_countLeadingZeros8+0x4d8>
    8000171e:	854a                	mv	a0,s2
    80001720:	ec06                	sd	ra,24(sp)
    80001722:	597040ef          	jal	ra,800064b8 <strcmp>
    80001726:	e115                	bnez	a0,8000174a <plic_prop+0x44>
    80001728:	00006597          	auipc	a1,0x6
    8000172c:	97858593          	addi	a1,a1,-1672 # 800070a0 <softfloat_countLeadingZeros8+0x528>
    80001730:	8526                	mv	a0,s1
    80001732:	e3dff0ef          	jal	ra,8000156e <fdt_string_list_index>
    80001736:	00054a63          	bltz	a0,8000174a <plic_prop+0x44>
    8000173a:	4785                	li	a5,1
    8000173c:	60e2                	ld	ra,24(sp)
    8000173e:	c01c                	sw	a5,0(s0)
    80001740:	6442                	ld	s0,16(sp)
    80001742:	64a2                	ld	s1,8(sp)
    80001744:	6902                	ld	s2,0(sp)
    80001746:	6105                	addi	sp,sp,32
    80001748:	8082                	ret
    8000174a:	00005597          	auipc	a1,0x5
    8000174e:	74658593          	addi	a1,a1,1862 # 80006e90 <softfloat_countLeadingZeros8+0x318>
    80001752:	854a                	mv	a0,s2
    80001754:	565040ef          	jal	ra,800064b8 <strcmp>
    80001758:	e535                	bnez	a0,800017c4 <plic_prop+0xbe>
    8000175a:	609c                	ld	a5,0(s1)
    8000175c:	6894                	ld	a3,16(s1)
    8000175e:	639c                	ld	a5,0(a5)
    80001760:	00043423          	sd	zero,8(s0)
    80001764:	4b9c                	lw	a5,16(a5)
    80001766:	04f05963          	blez	a5,800017b8 <plic_prop+0xb2>
    8000176a:	fff7859b          	addiw	a1,a5,-1
    8000176e:	1582                	slli	a1,a1,0x20
    80001770:	9181                	srli	a1,a1,0x20
    80001772:	0585                	addi	a1,a1,1
    80001774:	058a                	slli	a1,a1,0x2
    80001776:	ff010837          	lui	a6,0xff010
    8000177a:	00ff0537          	lui	a0,0xff0
    8000177e:	95b6                	add	a1,a1,a3
    80001780:	4781                	li	a5,0
    80001782:	f0080813          	addi	a6,a6,-256 # ffffffffff00ff00 <_payload_end+0xffffffff7ec3815c>
    80001786:	0ff50513          	addi	a0,a0,255 # ff00ff <MEM_START-0x7f00ff01>
    8000178a:	4298                	lw	a4,0(a3)
    8000178c:	02079613          	slli	a2,a5,0x20
    80001790:	0691                	addi	a3,a3,4
    80001792:	0087179b          	slliw	a5,a4,0x8
    80001796:	0087571b          	srliw	a4,a4,0x8
    8000179a:	8f69                	and	a4,a4,a0
    8000179c:	0107f7b3          	and	a5,a5,a6
    800017a0:	8fd9                	or	a5,a5,a4
    800017a2:	0107971b          	slliw	a4,a5,0x10
    800017a6:	0107d79b          	srliw	a5,a5,0x10
    800017aa:	8fd9                	or	a5,a5,a4
    800017ac:	1782                	slli	a5,a5,0x20
    800017ae:	9381                	srli	a5,a5,0x20
    800017b0:	97b2                	add	a5,a5,a2
    800017b2:	fcb69ce3          	bne	a3,a1,8000178a <plic_prop+0x84>
    800017b6:	e41c                	sd	a5,8(s0)
    800017b8:	60e2                	ld	ra,24(sp)
    800017ba:	6442                	ld	s0,16(sp)
    800017bc:	64a2                	ld	s1,8(sp)
    800017be:	6902                	ld	s2,0(sp)
    800017c0:	6105                	addi	sp,sp,32
    800017c2:	8082                	ret
    800017c4:	00006597          	auipc	a1,0x6
    800017c8:	89c58593          	addi	a1,a1,-1892 # 80007060 <softfloat_countLeadingZeros8+0x4e8>
    800017cc:	854a                	mv	a0,s2
    800017ce:	4eb040ef          	jal	ra,800064b8 <strcmp>
    800017d2:	c129                	beqz	a0,80001814 <plic_prop+0x10e>
    800017d4:	00006597          	auipc	a1,0x6
    800017d8:	8dc58593          	addi	a1,a1,-1828 # 800070b0 <softfloat_countLeadingZeros8+0x538>
    800017dc:	854a                	mv	a0,s2
    800017de:	4db040ef          	jal	ra,800064b8 <strcmp>
    800017e2:	f979                	bnez	a0,800017b8 <plic_prop+0xb2>
    800017e4:	689c                	ld	a5,16(s1)
    800017e6:	ff0106b7          	lui	a3,0xff010
    800017ea:	f0068693          	addi	a3,a3,-256 # ffffffffff00ff00 <_payload_end+0xffffffff7ec3815c>
    800017ee:	4398                	lw	a4,0(a5)
    800017f0:	0087179b          	slliw	a5,a4,0x8
    800017f4:	8ff5                	and	a5,a5,a3
    800017f6:	00ff06b7          	lui	a3,0xff0
    800017fa:	0087571b          	srliw	a4,a4,0x8
    800017fe:	0ff68693          	addi	a3,a3,255 # ff00ff <MEM_START-0x7f00ff01>
    80001802:	8f75                	and	a4,a4,a3
    80001804:	8fd9                	or	a5,a5,a4
    80001806:	0107971b          	slliw	a4,a5,0x10
    8000180a:	0107d79b          	srliw	a5,a5,0x10
    8000180e:	8fd9                	or	a5,a5,a4
    80001810:	d01c                	sw	a5,32(s0)
    80001812:	b75d                	j	800017b8 <plic_prop+0xb2>
    80001814:	6898                	ld	a4,16(s1)
    80001816:	4c9c                	lw	a5,24(s1)
    80001818:	60e2                	ld	ra,24(sp)
    8000181a:	e818                	sd	a4,16(s0)
    8000181c:	cc1c                	sw	a5,24(s0)
    8000181e:	6442                	ld	s0,16(sp)
    80001820:	64a2                	ld	s1,8(sp)
    80001822:	6902                	ld	s2,0(sp)
    80001824:	6105                	addi	sp,sp,32
    80001826:	8082                	ret

0000000080001828 <compat_prop>:
    80001828:	1101                	addi	sp,sp,-32
    8000182a:	e822                	sd	s0,16(sp)
    8000182c:	842a                	mv	s0,a0
    8000182e:	6508                	ld	a0,8(a0)
    80001830:	e426                	sd	s1,8(sp)
    80001832:	84ae                	mv	s1,a1
    80001834:	00006597          	auipc	a1,0x6
    80001838:	81c58593          	addi	a1,a1,-2020 # 80007050 <softfloat_countLeadingZeros8+0x4d8>
    8000183c:	ec06                	sd	ra,24(sp)
    8000183e:	47b040ef          	jal	ra,800064b8 <strcmp>
    80001842:	ed01                	bnez	a0,8000185a <compat_prop+0x32>
    80001844:	608c                	ld	a1,0(s1)
    80001846:	8522                	mv	a0,s0
    80001848:	d27ff0ef          	jal	ra,8000156e <fdt_string_list_index>
    8000184c:	00054763          	bltz	a0,8000185a <compat_prop+0x32>
    80001850:	449c                	lw	a5,8(s1)
    80001852:	44d8                	lw	a4,12(s1)
    80001854:	00e7d363          	bge	a5,a4,8000185a <compat_prop+0x32>
    80001858:	c4dc                	sw	a5,12(s1)
    8000185a:	60e2                	ld	ra,24(sp)
    8000185c:	6442                	ld	s0,16(sp)
    8000185e:	64a2                	ld	s1,8(sp)
    80001860:	6105                	addi	sp,sp,32
    80001862:	8082                	ret

0000000080001864 <query_mem>:
    80001864:	715d                	addi	sp,sp,-80
    80001866:	fffff797          	auipc	a5,0xfffff
    8000186a:	7d478793          	addi	a5,a5,2004 # 8000103a <mem_open>
    8000186e:	ec3e                	sd	a5,24(sp)
    80001870:	fffff797          	auipc	a5,0xfffff
    80001874:	25678793          	addi	a5,a5,598 # 80000ac6 <mem_prop>
    80001878:	f03e                	sd	a5,32(sp)
    8000187a:	082c                	addi	a1,sp,24
    8000187c:	fffff797          	auipc	a5,0xfffff
    80001880:	0d678793          	addi	a5,a5,214 # 80000952 <mem_done>
    80001884:	f43e                	sd	a5,40(sp)
    80001886:	e486                	sd	ra,72(sp)
    80001888:	00011797          	auipc	a5,0x11
    8000188c:	7a07bc23          	sd	zero,1976(a5) # 80013040 <mem_size>
    80001890:	f802                	sd	zero,48(sp)
    80001892:	fc0a                	sd	sp,56(sp)
    80001894:	a8fff0ef          	jal	ra,80001322 <fdt_scan>
    80001898:	00011797          	auipc	a5,0x11
    8000189c:	7a87b783          	ld	a5,1960(a5) # 80013040 <mem_size>
    800018a0:	c781                	beqz	a5,800018a8 <query_mem+0x44>
    800018a2:	60a6                	ld	ra,72(sp)
    800018a4:	6161                	addi	sp,sp,80
    800018a6:	8082                	ret
    800018a8:	00005517          	auipc	a0,0x5
    800018ac:	48850513          	addi	a0,a0,1160 # 80006d30 <softfloat_countLeadingZeros8+0x1b8>
    800018b0:	00006697          	auipc	a3,0x6
    800018b4:	81068693          	addi	a3,a3,-2032 # 800070c0 <softfloat_countLeadingZeros8+0x548>
    800018b8:	0cc00613          	li	a2,204
    800018bc:	00005597          	auipc	a1,0x5
    800018c0:	44458593          	addi	a1,a1,1092 # 80006d00 <softfloat_countLeadingZeros8+0x188>
    800018c4:	3d8000ef          	jal	ra,80001c9c <printm>
    800018c8:	6541                	lui	a0,0x10
    800018ca:	157d                	addi	a0,a0,-1
    800018cc:	440000ef          	jal	ra,80001d0c <poweroff>

00000000800018d0 <query_harts>:
    800018d0:	711d                	addi	sp,sp,-96
    800018d2:	fffff717          	auipc	a4,0xfffff
    800018d6:	ba670713          	addi	a4,a4,-1114 # 80000478 <hart_open>
    800018da:	f43a                	sd	a4,40(sp)
    800018dc:	fffff717          	auipc	a4,0xfffff
    800018e0:	27870713          	addi	a4,a4,632 # 80000b54 <hart_prop>
    800018e4:	f83a                	sd	a4,48(sp)
    800018e6:	fffff717          	auipc	a4,0xfffff
    800018ea:	75e70713          	addi	a4,a4,1886 # 80001044 <hart_done>
    800018ee:	003c                	addi	a5,sp,8
    800018f0:	fc3a                	sd	a4,56(sp)
    800018f2:	102c                	addi	a1,sp,40
    800018f4:	fffff717          	auipc	a4,0xfffff
    800018f8:	b9a70713          	addi	a4,a4,-1126 # 8000048e <hart_close>
    800018fc:	ec86                	sd	ra,88(sp)
    800018fe:	e402                	sd	zero,8(sp)
    80001900:	e0ba                	sd	a4,64(sp)
    80001902:	e4be                	sd	a5,72(sp)
    80001904:	e802                	sd	zero,16(sp)
    80001906:	ec02                	sd	zero,24(sp)
    80001908:	f002                	sd	zero,32(sp)
    8000190a:	a19ff0ef          	jal	ra,80001322 <fdt_scan>
    8000190e:	f1402773          	csrr	a4,mhartid
    80001912:	00011797          	auipc	a5,0x11
    80001916:	7167b783          	ld	a5,1814(a5) # 80013028 <hart_mask>
    8000191a:	00e7d7b3          	srl	a5,a5,a4
    8000191e:	c781                	beqz	a5,80001926 <query_harts+0x56>
    80001920:	60e6                	ld	ra,88(sp)
    80001922:	6125                	addi	sp,sp,96
    80001924:	8082                	ret
    80001926:	00005517          	auipc	a0,0x5
    8000192a:	40a50513          	addi	a0,a0,1034 # 80006d30 <softfloat_countLeadingZeros8+0x1b8>
    8000192e:	00005697          	auipc	a3,0x5
    80001932:	7a268693          	addi	a3,a3,1954 # 800070d0 <softfloat_countLeadingZeros8+0x558>
    80001936:	12800613          	li	a2,296
    8000193a:	00005597          	auipc	a1,0x5
    8000193e:	3c658593          	addi	a1,a1,966 # 80006d00 <softfloat_countLeadingZeros8+0x188>
    80001942:	35a000ef          	jal	ra,80001c9c <printm>
    80001946:	6541                	lui	a0,0x10
    80001948:	157d                	addi	a0,a0,-1
    8000194a:	3c2000ef          	jal	ra,80001d0c <poweroff>

000000008000194e <query_clint>:
    8000194e:	711d                	addi	sp,sp,-96
    80001950:	fffff797          	auipc	a5,0xfffff
    80001954:	b6078793          	addi	a5,a5,-1184 # 800004b0 <clint_open>
    80001958:	e03e                	sd	a5,0(sp)
    8000195a:	00000797          	auipc	a5,0x0
    8000195e:	c7478793          	addi	a5,a5,-908 # 800015ce <clint_prop>
    80001962:	e43e                	sd	a5,8(sp)
    80001964:	fffff797          	auipc	a5,0xfffff
    80001968:	c1a78793          	addi	a5,a5,-998 # 8000057e <clint_done>
    8000196c:	e83e                	sd	a5,16(sp)
    8000196e:	858a                	mv	a1,sp
    80001970:	103c                	addi	a5,sp,40
    80001972:	f03e                	sd	a5,32(sp)
    80001974:	ec86                	sd	ra,88(sp)
    80001976:	ec02                	sd	zero,24(sp)
    80001978:	c282                	sw	zero,68(sp)
    8000197a:	9a9ff0ef          	jal	ra,80001322 <fdt_scan>
    8000197e:	4796                	lw	a5,68(sp)
    80001980:	c781                	beqz	a5,80001988 <query_clint+0x3a>
    80001982:	60e6                	ld	ra,88(sp)
    80001984:	6125                	addi	sp,sp,96
    80001986:	8082                	ret
    80001988:	00005517          	auipc	a0,0x5
    8000198c:	3a850513          	addi	a0,a0,936 # 80006d30 <softfloat_countLeadingZeros8+0x1b8>
    80001990:	00005697          	auipc	a3,0x5
    80001994:	76868693          	addi	a3,a3,1896 # 800070f8 <softfloat_countLeadingZeros8+0x580>
    80001998:	18000613          	li	a2,384
    8000199c:	00005597          	auipc	a1,0x5
    800019a0:	36458593          	addi	a1,a1,868 # 80006d00 <softfloat_countLeadingZeros8+0x188>
    800019a4:	2f8000ef          	jal	ra,80001c9c <printm>
    800019a8:	6541                	lui	a0,0x10
    800019aa:	157d                	addi	a0,a0,-1
    800019ac:	360000ef          	jal	ra,80001d0c <poweroff>

00000000800019b0 <query_plic>:
    800019b0:	711d                	addi	sp,sp,-96
    800019b2:	fffff797          	auipc	a5,0xfffff
    800019b6:	b1078793          	addi	a5,a5,-1264 # 800004c2 <plic_open>
    800019ba:	e03e                	sd	a5,0(sp)
    800019bc:	00000797          	auipc	a5,0x0
    800019c0:	d4a78793          	addi	a5,a5,-694 # 80001706 <plic_prop>
    800019c4:	e43e                	sd	a5,8(sp)
    800019c6:	fffff797          	auipc	a5,0xfffff
    800019ca:	d4078793          	addi	a5,a5,-704 # 80000706 <plic_done>
    800019ce:	e83e                	sd	a5,16(sp)
    800019d0:	858a                	mv	a1,sp
    800019d2:	103c                	addi	a5,sp,40
    800019d4:	ec86                	sd	ra,88(sp)
    800019d6:	ec02                	sd	zero,24(sp)
    800019d8:	f03e                	sd	a5,32(sp)
    800019da:	c282                	sw	zero,68(sp)
    800019dc:	947ff0ef          	jal	ra,80001322 <fdt_scan>
    800019e0:	60e6                	ld	ra,88(sp)
    800019e2:	6125                	addi	sp,sp,96
    800019e4:	8082                	ret

00000000800019e6 <filter_plic>:
    800019e6:	711d                	addi	sp,sp,-96
    800019e8:	fffff797          	auipc	a5,0xfffff
    800019ec:	ada78793          	addi	a5,a5,-1318 # 800004c2 <plic_open>
    800019f0:	e03e                	sd	a5,0(sp)
    800019f2:	00000797          	auipc	a5,0x0
    800019f6:	d1478793          	addi	a5,a5,-748 # 80001706 <plic_prop>
    800019fa:	e43e                	sd	a5,8(sp)
    800019fc:	fffff797          	auipc	a5,0xfffff
    80001a00:	ad478793          	addi	a5,a5,-1324 # 800004d0 <plic_redact>
    80001a04:	e83e                	sd	a5,16(sp)
    80001a06:	858a                	mv	a1,sp
    80001a08:	103c                	addi	a5,sp,40
    80001a0a:	ec86                	sd	ra,88(sp)
    80001a0c:	ec02                	sd	zero,24(sp)
    80001a0e:	f03e                	sd	a5,32(sp)
    80001a10:	c282                	sw	zero,68(sp)
    80001a12:	911ff0ef          	jal	ra,80001322 <fdt_scan>
    80001a16:	60e6                	ld	ra,88(sp)
    80001a18:	6125                	addi	sp,sp,96
    80001a1a:	8082                	ret

0000000080001a1c <filter_compat>:
    80001a1c:	715d                	addi	sp,sp,-80
    80001a1e:	fffff717          	auipc	a4,0xfffff
    80001a22:	b1870713          	addi	a4,a4,-1256 # 80000536 <compat_open>
    80001a26:	87ae                	mv	a5,a1
    80001a28:	ec3a                	sd	a4,24(sp)
    80001a2a:	00000717          	auipc	a4,0x0
    80001a2e:	dfe70713          	addi	a4,a4,-514 # 80001828 <compat_prop>
    80001a32:	f03a                	sd	a4,32(sp)
    80001a34:	e43e                	sd	a5,8(sp)
    80001a36:	fffff717          	auipc	a4,0xfffff
    80001a3a:	b0870713          	addi	a4,a4,-1272 # 8000053e <compat_close>
    80001a3e:	3e700793          	li	a5,999
    80001a42:	f83a                	sd	a4,48(sp)
    80001a44:	082c                	addi	a1,sp,24
    80001a46:	0038                	addi	a4,sp,8
    80001a48:	1782                	slli	a5,a5,0x20
    80001a4a:	e486                	sd	ra,72(sp)
    80001a4c:	f402                	sd	zero,40(sp)
    80001a4e:	fc3a                	sd	a4,56(sp)
    80001a50:	e83e                	sd	a5,16(sp)
    80001a52:	8d1ff0ef          	jal	ra,80001322 <fdt_scan>
    80001a56:	60a6                	ld	ra,72(sp)
    80001a58:	6161                	addi	sp,sp,80
    80001a5a:	8082                	ret

0000000080001a5c <query_chosen>:
    80001a5c:	715d                	addi	sp,sp,-80
    80001a5e:	fffff797          	auipc	a5,0xfffff
    80001a62:	0ce78793          	addi	a5,a5,206 # 80000b2c <chosen_open>
    80001a66:	ec3e                	sd	a5,24(sp)
    80001a68:	fffff797          	auipc	a5,0xfffff
    80001a6c:	af278793          	addi	a5,a5,-1294 # 8000055a <chosen_close>
    80001a70:	f83e                	sd	a5,48(sp)
    80001a72:	082c                	addi	a1,sp,24
    80001a74:	fffff797          	auipc	a5,0xfffff
    80001a78:	79e78793          	addi	a5,a5,1950 # 80001212 <chosen_prop>
    80001a7c:	e486                	sd	ra,72(sp)
    80001a7e:	f03e                	sd	a5,32(sp)
    80001a80:	f402                	sd	zero,40(sp)
    80001a82:	e002                	sd	zero,0(sp)
    80001a84:	fc0a                	sd	sp,56(sp)
    80001a86:	e402                	sd	zero,8(sp)
    80001a88:	e802                	sd	zero,16(sp)
    80001a8a:	899ff0ef          	jal	ra,80001322 <fdt_scan>
    80001a8e:	67a2                	ld	a5,8(sp)
    80001a90:	60a6                	ld	ra,72(sp)
    80001a92:	00011717          	auipc	a4,0x11
    80001a96:	5cf73723          	sd	a5,1486(a4) # 80013060 <kernel_start>
    80001a9a:	67c2                	ld	a5,16(sp)
    80001a9c:	00011717          	auipc	a4,0x11
    80001aa0:	5af73623          	sd	a5,1452(a4) # 80013048 <kernel_end>
    80001aa4:	6161                	addi	sp,sp,80
    80001aa6:	8082                	ret

0000000080001aa8 <filter_harts>:
    80001aa8:	711d                	addi	sp,sp,-96
    80001aaa:	fffff717          	auipc	a4,0xfffff
    80001aae:	ac470713          	addi	a4,a4,-1340 # 8000056e <hart_filter_open>
    80001ab2:	f43a                	sd	a4,40(sp)
    80001ab4:	fffff717          	auipc	a4,0xfffff
    80001ab8:	24470713          	addi	a4,a4,580 # 80000cf8 <hart_filter_prop>
    80001abc:	ec86                	sd	ra,88(sp)
    80001abe:	f83a                	sd	a4,48(sp)
    80001ac0:	fffff717          	auipc	a4,0xfffff
    80001ac4:	63670713          	addi	a4,a4,1590 # 800010f6 <hart_filter_done>
    80001ac8:	87ae                	mv	a5,a1
    80001aca:	fc3a                	sd	a4,56(sp)
    80001acc:	0005b023          	sd	zero,0(a1)
    80001ad0:	0038                	addi	a4,sp,8
    80001ad2:	102c                	addi	a1,sp,40
    80001ad4:	e082                	sd	zero,64(sp)
    80001ad6:	e4ba                	sd	a4,72(sp)
    80001ad8:	f03e                	sd	a5,32(sp)
    80001ada:	849ff0ef          	jal	ra,80001322 <fdt_scan>
    80001ade:	60e6                	ld	ra,88(sp)
    80001ae0:	6125                	addi	sp,sp,96
    80001ae2:	8082                	ret

0000000080001ae4 <send_ipi_many>:
    80001ae4:	88ae                	mv	a7,a1
    80001ae6:	00011817          	auipc	a6,0x11
    80001aea:	54283803          	ld	a6,1346(a6) # 80013028 <hart_mask>
    80001aee:	cd01                	beqz	a0,80001b06 <send_ipi_many+0x22>
    80001af0:	34102673          	csrr	a2,mepc
    80001af4:	000205b7          	lui	a1,0x20
    80001af8:	3005a6f3          	csrrs	a3,mstatus,a1
    80001afc:	611c                	ld	a5,0(a0)
    80001afe:	30069073          	csrw	mstatus,a3
    80001b02:	00f87833          	and	a6,a6,a5
    80001b06:	8742                	mv	a4,a6
    80001b08:	4681                	li	a3,0
    80001b0a:	0c080c63          	beqz	a6,80001be2 <send_ipi_many+0xfe>
    80001b0e:	6505                	lui	a0,0x1
    80001b10:	950a                	add	a0,a0,sp
    80001b12:	77fd                	lui	a5,0xfffff
    80001b14:	00011317          	auipc	t1,0x11
    80001b18:	50c30313          	addi	t1,t1,1292 # 80013020 <disabled_hart_mask>
    80001b1c:	8d7d                	and	a0,a0,a5
    80001b1e:	4e05                	li	t3,1
    80001b20:	f14025f3          	csrr	a1,mhartid
    80001b24:	a021                	j	80001b2c <send_ipi_many+0x48>
    80001b26:	8305                	srli	a4,a4,0x1
    80001b28:	0685                	addi	a3,a3,1
    80001b2a:	cf0d                	beqz	a4,80001b64 <send_ipi_many+0x80>
    80001b2c:	00177793          	andi	a5,a4,1
    80001b30:	dbfd                	beqz	a5,80001b26 <send_ipi_many+0x42>
    80001b32:	00033603          	ld	a2,0(t1)
    80001b36:	40b687b3          	sub	a5,a3,a1
    80001b3a:	07b2                	slli	a5,a5,0xc
    80001b3c:	40d65633          	sra	a2,a2,a3
    80001b40:	8a05                	andi	a2,a2,1
    80001b42:	97aa                	add	a5,a5,a0
    80001b44:	f26d                	bnez	a2,80001b26 <send_ipi_many+0x42>
    80001b46:	fc878613          	addi	a2,a5,-56 # ffffffffffffefc8 <_payload_end+0xffffffff7fc27224>
    80001b4a:	0f50000f          	fence	iorw,ow
    80001b4e:	4516202f          	amoor.w.aq	zero,a7,(a2)
    80001b52:	0ff0000f          	fence
    80001b56:	fc07b783          	ld	a5,-64(a5)
    80001b5a:	8305                	srli	a4,a4,0x1
    80001b5c:	0685                	addi	a3,a3,1
    80001b5e:	01c7a023          	sw	t3,0(a5)
    80001b62:	f769                	bnez	a4,80001b2c <send_ipi_many+0x48>
    80001b64:	4785                	li	a5,1
    80001b66:	06f88e63          	beq	a7,a5,80001be2 <send_ipi_many+0xfe>
    80001b6a:	6505                	lui	a0,0x1
    80001b6c:	950a                	add	a0,a0,sp
    80001b6e:	77fd                	lui	a5,0xfffff
    80001b70:	f1402373          	csrr	t1,mhartid
    80001b74:	4601                	li	a2,0
    80001b76:	8d7d                	and	a0,a0,a5
    80001b78:	4881                	li	a7,0
    80001b7a:	8e1a                	mv	t3,t1
    80001b7c:	a031                	j	80001b88 <send_ipi_many+0xa4>
    80001b7e:	00185813          	srli	a6,a6,0x1
    80001b82:	0705                	addi	a4,a4,1
    80001b84:	04080463          	beqz	a6,80001bcc <send_ipi_many+0xe8>
    80001b88:	00187793          	andi	a5,a6,1
    80001b8c:	dbed                	beqz	a5,80001b7e <send_ipi_many+0x9a>
    80001b8e:	406707b3          	sub	a5,a4,t1
    80001b92:	07b2                	slli	a5,a5,0xc
    80001b94:	97aa                	add	a5,a5,a0
    80001b96:	fc07b783          	ld	a5,-64(a5) # ffffffffffffefc0 <_payload_end+0xffffffff7fc2721c>
    80001b9a:	439c                	lw	a5,0(a5)
    80001b9c:	2781                	sext.w	a5,a5
    80001b9e:	d3e5                	beqz	a5,80001b7e <send_ipi_many+0x9a>
    80001ba0:	41c705b3          	sub	a1,a4,t3
    80001ba4:	05b2                	slli	a1,a1,0xc
    80001ba6:	95aa                	add	a1,a1,a0
    80001ba8:	fc053683          	ld	a3,-64(a0) # fc0 <MEM_START-0x7ffff040>
    80001bac:	87c6                	mv	a5,a7
    80001bae:	0cf6a7af          	amoswap.w.aq	a5,a5,(a3)
    80001bb2:	fc05b683          	ld	a3,-64(a1) # 1ffc0 <MEM_START-0x7ffe0040>
    80001bb6:	8fd1                	or	a5,a5,a2
    80001bb8:	0007861b          	sext.w	a2,a5
    80001bbc:	429c                	lw	a5,0(a3)
    80001bbe:	2781                	sext.w	a5,a5
    80001bc0:	f7e5                	bnez	a5,80001ba8 <send_ipi_many+0xc4>
    80001bc2:	00185813          	srli	a6,a6,0x1
    80001bc6:	0705                	addi	a4,a4,1
    80001bc8:	fc0810e3          	bnez	a6,80001b88 <send_ipi_many+0xa4>
    80001bcc:	ca19                	beqz	a2,80001be2 <send_ipi_many+0xfe>
    80001bce:	6785                	lui	a5,0x1
    80001bd0:	978a                	add	a5,a5,sp
    80001bd2:	777d                	lui	a4,0xfffff
    80001bd4:	8ff9                	and	a5,a5,a4
    80001bd6:	fc07b783          	ld	a5,-64(a5) # fc0 <MEM_START-0x7ffff040>
    80001bda:	c390                	sw	a2,0(a5)
    80001bdc:	0ff0000f          	fence
    80001be0:	8082                	ret
    80001be2:	8082                	ret

0000000080001be4 <mcall_console_putchar>:
    80001be4:	1141                	addi	sp,sp,-16
    80001be6:	e406                	sd	ra,8(sp)
    80001be8:	00011797          	auipc	a5,0x11
    80001bec:	4907b783          	ld	a5,1168(a5) # 80013078 <uart>
    80001bf0:	c799                	beqz	a5,80001bfe <mcall_console_putchar+0x1a>
    80001bf2:	171000ef          	jal	ra,80002562 <uart_putchar>
    80001bf6:	60a2                	ld	ra,8(sp)
    80001bf8:	4501                	li	a0,0
    80001bfa:	0141                	addi	sp,sp,16
    80001bfc:	8082                	ret
    80001bfe:	00011797          	auipc	a5,0x11
    80001c02:	4127b783          	ld	a5,1042(a5) # 80013010 <xuart>
    80001c06:	c799                	beqz	a5,80001c14 <mcall_console_putchar+0x30>
    80001c08:	25b000ef          	jal	ra,80002662 <xuart_putchar>
    80001c0c:	60a2                	ld	ra,8(sp)
    80001c0e:	4501                	li	a0,0
    80001c10:	0141                	addi	sp,sp,16
    80001c12:	8082                	ret
    80001c14:	00011797          	auipc	a5,0x11
    80001c18:	46c7b783          	ld	a5,1132(a5) # 80013080 <uartlite>
    80001c1c:	c799                	beqz	a5,80001c2a <mcall_console_putchar+0x46>
    80001c1e:	349000ef          	jal	ra,80002766 <uartlite_putchar>
    80001c22:	60a2                	ld	ra,8(sp)
    80001c24:	4501                	li	a0,0
    80001c26:	0141                	addi	sp,sp,16
    80001c28:	8082                	ret
    80001c2a:	00011797          	auipc	a5,0x11
    80001c2e:	45e7b783          	ld	a5,1118(a5) # 80013088 <uart16550>
    80001c32:	c781                	beqz	a5,80001c3a <mcall_console_putchar+0x56>
    80001c34:	59b000ef          	jal	ra,800029ce <uart16550_putchar>
    80001c38:	bf7d                	j	80001bf6 <mcall_console_putchar+0x12>
    80001c3a:	00011797          	auipc	a5,0x11
    80001c3e:	42e7b783          	ld	a5,1070(a5) # 80013068 <htif>
    80001c42:	dbd5                	beqz	a5,80001bf6 <mcall_console_putchar+0x12>
    80001c44:	7da000ef          	jal	ra,8000241e <htif_console_putchar>
    80001c48:	b77d                	j	80001bf6 <mcall_console_putchar+0x12>

0000000080001c4a <putstring>:
    80001c4a:	1141                	addi	sp,sp,-16
    80001c4c:	e022                	sd	s0,0(sp)
    80001c4e:	e406                	sd	ra,8(sp)
    80001c50:	842a                	mv	s0,a0
    80001c52:	00054503          	lbu	a0,0(a0)
    80001c56:	c519                	beqz	a0,80001c64 <putstring+0x1a>
    80001c58:	0405                	addi	s0,s0,1
    80001c5a:	f8bff0ef          	jal	ra,80001be4 <mcall_console_putchar>
    80001c5e:	00044503          	lbu	a0,0(s0)
    80001c62:	f97d                	bnez	a0,80001c58 <putstring+0xe>
    80001c64:	60a2                	ld	ra,8(sp)
    80001c66:	6402                	ld	s0,0(sp)
    80001c68:	0141                	addi	sp,sp,16
    80001c6a:	8082                	ret

0000000080001c6c <vprintm>:
    80001c6c:	716d                	addi	sp,sp,-272
    80001c6e:	862a                	mv	a2,a0
    80001c70:	86ae                	mv	a3,a1
    80001c72:	850a                	mv	a0,sp
    80001c74:	10000593          	li	a1,256
    80001c78:	e606                	sd	ra,264(sp)
    80001c7a:	e222                	sd	s0,256(sp)
    80001c7c:	4da040ef          	jal	ra,80006156 <vsnprintf>
    80001c80:	00014503          	lbu	a0,0(sp)
    80001c84:	c901                	beqz	a0,80001c94 <vprintm+0x28>
    80001c86:	840a                	mv	s0,sp
    80001c88:	0405                	addi	s0,s0,1
    80001c8a:	f5bff0ef          	jal	ra,80001be4 <mcall_console_putchar>
    80001c8e:	00044503          	lbu	a0,0(s0)
    80001c92:	f97d                	bnez	a0,80001c88 <vprintm+0x1c>
    80001c94:	60b2                	ld	ra,264(sp)
    80001c96:	6412                	ld	s0,256(sp)
    80001c98:	6151                	addi	sp,sp,272
    80001c9a:	8082                	ret

0000000080001c9c <printm>:
    80001c9c:	711d                	addi	sp,sp,-96
    80001c9e:	02810313          	addi	t1,sp,40
    80001ca2:	f42e                	sd	a1,40(sp)
    80001ca4:	859a                	mv	a1,t1
    80001ca6:	ec06                	sd	ra,24(sp)
    80001ca8:	f832                	sd	a2,48(sp)
    80001caa:	fc36                	sd	a3,56(sp)
    80001cac:	e0ba                	sd	a4,64(sp)
    80001cae:	e4be                	sd	a5,72(sp)
    80001cb0:	e8c2                	sd	a6,80(sp)
    80001cb2:	ecc6                	sd	a7,88(sp)
    80001cb4:	e41a                	sd	t1,8(sp)
    80001cb6:	fb7ff0ef          	jal	ra,80001c6c <vprintm>
    80001cba:	60e2                	ld	ra,24(sp)
    80001cbc:	6125                	addi	sp,sp,96
    80001cbe:	8082                	ret

0000000080001cc0 <redirect_trap>:
    80001cc0:	14361073          	csrw	stval,a2
    80001cc4:	14151073          	csrw	sepc,a0
    80001cc8:	342027f3          	csrr	a5,mcause
    80001ccc:	14279073          	csrw	scause,a5
    80001cd0:	105027f3          	csrr	a5,stvec
    80001cd4:	34179073          	csrw	mepc,a5
    80001cd8:	00459793          	slli	a5,a1,0x4
    80001cdc:	0035d713          	srli	a4,a1,0x3
    80001ce0:	10077713          	andi	a4,a4,256
    80001ce4:	0207f793          	andi	a5,a5,32
    80001ce8:	edd5f593          	andi	a1,a1,-291
    80001cec:	8fd9                	or	a5,a5,a4
    80001cee:	6705                	lui	a4,0x1
    80001cf0:	8fcd                	or	a5,a5,a1
    80001cf2:	80070713          	addi	a4,a4,-2048 # 800 <MEM_START-0x7ffff800>
    80001cf6:	8fd9                	or	a5,a5,a4
    80001cf8:	30079073          	csrw	mstatus,a5
    80001cfc:	ce4fe06f          	j	800001e0 <__redirect_trap>

0000000080001d00 <pmp_trap>:
    80001d00:	8532                	mv	a0,a2
    80001d02:	300025f3          	csrr	a1,mstatus
    80001d06:	34302673          	csrr	a2,mtval
    80001d0a:	bf5d                	j	80001cc0 <redirect_trap>

0000000080001d0c <poweroff>:
    80001d0c:	1141                	addi	sp,sp,-16
    80001d0e:	e022                	sd	s0,0(sp)
    80001d10:	842a                	mv	s0,a0
    80001d12:	00005517          	auipc	a0,0x5
    80001d16:	3f650513          	addi	a0,a0,1014 # 80007108 <softfloat_countLeadingZeros8+0x590>
    80001d1a:	e406                	sd	ra,8(sp)
    80001d1c:	f81ff0ef          	jal	ra,80001c9c <printm>
    80001d20:	8522                	mv	a0,s0
    80001d22:	5cd000ef          	jal	ra,80002aee <finisher_exit>
    80001d26:	00011797          	auipc	a5,0x11
    80001d2a:	3427b783          	ld	a5,834(a5) # 80013068 <htif>
    80001d2e:	c399                	beqz	a5,80001d34 <poweroff+0x28>
    80001d30:	74a000ef          	jal	ra,8000247a <htif_poweroff>
    80001d34:	45a1                	li	a1,8
    80001d36:	4501                	li	a0,0
    80001d38:	dadff0ef          	jal	ra,80001ae4 <send_ipi_many>
    80001d3c:	10500073          	wfi
    80001d40:	bff5                	j	80001d3c <poweroff+0x30>

0000000080001d42 <bad_trap>:
    80001d42:	1141                	addi	sp,sp,-16
    80001d44:	e406                	sd	ra,8(sp)
    80001d46:	8732                	mv	a4,a2
    80001d48:	342026f3          	csrr	a3,mcause
    80001d4c:	00005517          	auipc	a0,0x5
    80001d50:	3fc50513          	addi	a0,a0,1020 # 80007148 <softfloat_countLeadingZeros8+0x5d0>
    80001d54:	465d                	li	a2,23
    80001d56:	00005597          	auipc	a1,0x5
    80001d5a:	3c258593          	addi	a1,a1,962 # 80007118 <softfloat_countLeadingZeros8+0x5a0>
    80001d5e:	f3fff0ef          	jal	ra,80001c9c <printm>
    80001d62:	6541                	lui	a0,0x10
    80001d64:	157d                	addi	a0,a0,-1
    80001d66:	fa7ff0ef          	jal	ra,80001d0c <poweroff>

0000000080001d6a <trap_from_machine_mode>:
    80001d6a:	1141                	addi	sp,sp,-16
    80001d6c:	e406                	sd	ra,8(sp)
    80001d6e:	342027f3          	csrr	a5,mcause
    80001d72:	473d                	li	a4,15
    80001d74:	06f76463          	bltu	a4,a5,80001ddc <trap_from_machine_mode+0x72>
    80001d78:	00005817          	auipc	a6,0x5
    80001d7c:	bfc80813          	addi	a6,a6,-1028 # 80006974 <logo+0x41c>
    80001d80:	00279693          	slli	a3,a5,0x2
    80001d84:	96c2                	add	a3,a3,a6
    80001d86:	4298                	lw	a4,0(a3)
    80001d88:	9742                	add	a4,a4,a6
    80001d8a:	8702                	jr	a4
    80001d8c:	30002773          	csrr	a4,mstatus
    80001d90:	02e71693          	slli	a3,a4,0x2e
    80001d94:	000205b7          	lui	a1,0x20
    80001d98:	0406d463          	bgez	a3,80001de0 <trap_from_machine_mode+0x76>
    80001d9c:	6d38                	ld	a4,88(a0)
    80001d9e:	000a06b7          	lui	a3,0xa0
    80001da2:	00d70b63          	beq	a4,a3,80001db8 <trap_from_machine_mode+0x4e>
    80001da6:	02b71d63          	bne	a4,a1,80001de0 <trap_from_machine_mode+0x76>
    80001daa:	34302673          	csrr	a2,mtval
    80001dae:	752c                	ld	a1,104(a0)
    80001db0:	60a2                	ld	ra,8(sp)
    80001db2:	7128                	ld	a0,96(a0)
    80001db4:	0141                	addi	sp,sp,16
    80001db6:	b729                	j	80001cc0 <redirect_trap>
    80001db8:	4735                	li	a4,13
    80001dba:	00e78e63          	beq	a5,a4,80001dd6 <trap_from_machine_mode+0x6c>
    80001dbe:	4715                	li	a4,5
    80001dc0:	02e79063          	bne	a5,a4,80001de0 <trap_from_machine_mode+0x76>
    80001dc4:	3420d073          	csrwi	mcause,1
    80001dc8:	34302673          	csrr	a2,mtval
    80001dcc:	752c                	ld	a1,104(a0)
    80001dce:	60a2                	ld	ra,8(sp)
    80001dd0:	7128                	ld	a0,96(a0)
    80001dd2:	0141                	addi	sp,sp,16
    80001dd4:	b5f5                	j	80001cc0 <redirect_trap>
    80001dd6:	34265073          	csrwi	mcause,12
    80001dda:	bfc1                	j	80001daa <trap_from_machine_mode+0x40>
    80001ddc:	f67ff0ef          	jal	ra,80001d42 <bad_trap>
    80001de0:	85be                	mv	a1,a5
    80001de2:	f61ff0ef          	jal	ra,80001d42 <bad_trap>

0000000080001de6 <mcall_trap>:
    80001de6:	1141                	addi	sp,sp,-16
    80001de8:	e022                	sd	s0,0(sp)
    80001dea:	e406                	sd	ra,8(sp)
    80001dec:	842a                	mv	s0,a0
    80001dee:	0611                	addi	a2,a2,4
    80001df0:	34161073          	csrw	mepc,a2
    80001df4:	655c                	ld	a5,136(a0)
    80001df6:	4721                	li	a4,8
    80001df8:	6928                	ld	a0,80(a0)
    80001dfa:	0ef76063          	bltu	a4,a5,80001eda <mcall_trap+0xf4>
    80001dfe:	00005617          	auipc	a2,0x5
    80001e02:	bb660613          	addi	a2,a2,-1098 # 800069b4 <logo+0x45c>
    80001e06:	00279693          	slli	a3,a5,0x2
    80001e0a:	96b2                	add	a3,a3,a2
    80001e0c:	4298                	lw	a4,0(a3)
    80001e0e:	9732                	add	a4,a4,a2
    80001e10:	8702                	jr	a4
    80001e12:	4591                	li	a1,4
    80001e14:	cd1ff0ef          	jal	ra,80001ae4 <send_ipi_many>
    80001e18:	4781                	li	a5,0
    80001e1a:	60a2                	ld	ra,8(sp)
    80001e1c:	e83c                	sd	a5,80(s0)
    80001e1e:	6402                	ld	s0,0(sp)
    80001e20:	0141                	addi	sp,sp,16
    80001e22:	8082                	ret
    80001e24:	6705                	lui	a4,0x1
    80001e26:	970a                	add	a4,a4,sp
    80001e28:	76fd                	lui	a3,0xfffff
    80001e2a:	8f75                	and	a4,a4,a3
    80001e2c:	fd073703          	ld	a4,-48(a4) # fd0 <MEM_START-0x7ffff030>
    80001e30:	e308                	sd	a0,0(a4)
    80001e32:	02000713          	li	a4,32
    80001e36:	34473773          	csrrc	a4,mip,a4
    80001e3a:	08000713          	li	a4,128
    80001e3e:	30472773          	csrrs	a4,mie,a4
    80001e42:	60a2                	ld	ra,8(sp)
    80001e44:	e83c                	sd	a5,80(s0)
    80001e46:	6402                	ld	s0,0(sp)
    80001e48:	0141                	addi	sp,sp,16
    80001e4a:	8082                	ret
    80001e4c:	0ff57513          	andi	a0,a0,255
    80001e50:	d95ff0ef          	jal	ra,80001be4 <mcall_console_putchar>
    80001e54:	87aa                	mv	a5,a0
    80001e56:	60a2                	ld	ra,8(sp)
    80001e58:	e83c                	sd	a5,80(s0)
    80001e5a:	6402                	ld	s0,0(sp)
    80001e5c:	0141                	addi	sp,sp,16
    80001e5e:	8082                	ret
    80001e60:	00011797          	auipc	a5,0x11
    80001e64:	2187b783          	ld	a5,536(a5) # 80013078 <uart>
    80001e68:	efa9                	bnez	a5,80001ec2 <mcall_trap+0xdc>
    80001e6a:	00011797          	auipc	a5,0x11
    80001e6e:	1a67b783          	ld	a5,422(a5) # 80013010 <xuart>
    80001e72:	e7a1                	bnez	a5,80001eba <mcall_trap+0xd4>
    80001e74:	00011797          	auipc	a5,0x11
    80001e78:	20c7b783          	ld	a5,524(a5) # 80013080 <uartlite>
    80001e7c:	e7b9                	bnez	a5,80001eca <mcall_trap+0xe4>
    80001e7e:	00011797          	auipc	a5,0x11
    80001e82:	20a7b783          	ld	a5,522(a5) # 80013088 <uart16550>
    80001e86:	e7b1                	bnez	a5,80001ed2 <mcall_trap+0xec>
    80001e88:	00011797          	auipc	a5,0x11
    80001e8c:	1e07b783          	ld	a5,480(a5) # 80013068 <htif>
    80001e90:	d7c9                	beqz	a5,80001e1a <mcall_trap+0x34>
    80001e92:	4a8000ef          	jal	ra,8000233a <htif_console_getchar>
    80001e96:	87aa                	mv	a5,a0
    80001e98:	b749                	j	80001e1a <mcall_trap+0x34>
    80001e9a:	34417573          	csrrci	a0,mip,2
    80001e9e:	00257793          	andi	a5,a0,2
    80001ea2:	60a2                	ld	ra,8(sp)
    80001ea4:	e83c                	sd	a5,80(s0)
    80001ea6:	6402                	ld	s0,0(sp)
    80001ea8:	0141                	addi	sp,sp,16
    80001eaa:	8082                	ret
    80001eac:	4585                	li	a1,1
    80001eae:	b79d                	j	80001e14 <mcall_trap+0x2e>
    80001eb0:	4589                	li	a1,2
    80001eb2:	b78d                	j	80001e14 <mcall_trap+0x2e>
    80001eb4:	4501                	li	a0,0
    80001eb6:	e57ff0ef          	jal	ra,80001d0c <poweroff>
    80001eba:	7be000ef          	jal	ra,80002678 <xuart_getchar>
    80001ebe:	87aa                	mv	a5,a0
    80001ec0:	bfa9                	j	80001e1a <mcall_trap+0x34>
    80001ec2:	6b8000ef          	jal	ra,8000257a <uart_getchar>
    80001ec6:	87aa                	mv	a5,a0
    80001ec8:	bf89                	j	80001e1a <mcall_trap+0x34>
    80001eca:	0cf000ef          	jal	ra,80002798 <uartlite_getchar>
    80001ece:	87aa                	mv	a5,a0
    80001ed0:	b7a9                	j	80001e1a <mcall_trap+0x34>
    80001ed2:	325000ef          	jal	ra,800029f6 <uart16550_getchar>
    80001ed6:	87aa                	mv	a5,a0
    80001ed8:	b789                	j	80001e1a <mcall_trap+0x34>
    80001eda:	fa800793          	li	a5,-88
    80001ede:	bf35                	j	80001e1a <mcall_trap+0x34>

0000000080001ee0 <hart_init>:
    80001ee0:	301027f3          	csrr	a5,misa
    80001ee4:	02d79713          	slli	a4,a5,0x2d
    80001ee8:	00075563          	bgez	a4,80001ef2 <hart_init+0x12>
    80001eec:	57fd                	li	a5,-1
    80001eee:	10679073          	csrw	scounteren,a5
    80001ef2:	301027f3          	csrr	a5,misa
    80001ef6:	02b79713          	slli	a4,a5,0x2b
    80001efa:	00075563          	bgez	a4,80001f04 <hart_init+0x24>
    80001efe:	57fd                	li	a5,-1
    80001f00:	30679073          	csrw	mcounteren,a5
    80001f04:	30445073          	csrwi	mie,8
    80001f08:	301027f3          	csrr	a5,misa
    80001f0c:	02d79713          	slli	a4,a5,0x2d
    80001f10:	00075463          	bgez	a4,80001f18 <hart_init+0x38>
    80001f14:	18005073          	csrwi	satp,0
    80001f18:	301027f3          	csrr	a5,misa
    80001f1c:	02d79713          	slli	a4,a5,0x2d
    80001f20:	04075763          	bgez	a4,80001f6e <hart_init+0x8e>
    80001f24:	1141                	addi	sp,sp,-16
    80001f26:	e406                	sd	ra,8(sp)
    80001f28:	22200713          	li	a4,546
    80001f2c:	30371073          	csrw	mideleg,a4
    80001f30:	67ad                	lui	a5,0xb
    80001f32:	10978793          	addi	a5,a5,265 # b109 <MEM_START-0x7fff4ef7>
    80001f36:	30279073          	csrw	medeleg,a5
    80001f3a:	303026f3          	csrr	a3,mideleg
    80001f3e:	06e69c63          	bne	a3,a4,80001fb6 <hart_init+0xd6>
    80001f42:	30202773          	csrr	a4,medeleg
    80001f46:	04f71463          	bne	a4,a5,80001f8e <hart_init+0xae>
    80001f4a:	47fd                	li	a5,31
    80001f4c:	577d                	li	a4,-1
    80001f4e:	00000297          	auipc	t0,0x0
    80001f52:	01628293          	addi	t0,t0,22 # 80001f64 <hart_init+0x84>
    80001f56:	305292f3          	csrrw	t0,mtvec,t0
    80001f5a:	3b071073          	csrw	pmpaddr0,a4
    80001f5e:	3a079073          	csrw	pmpcfg0,a5
    80001f62:	0001                	nop
    80001f64:	30529073          	csrw	mtvec,t0
    80001f68:	60a2                	ld	ra,8(sp)
    80001f6a:	0141                	addi	sp,sp,16
    80001f6c:	8082                	ret
    80001f6e:	47fd                	li	a5,31
    80001f70:	577d                	li	a4,-1
    80001f72:	00000297          	auipc	t0,0x0
    80001f76:	01628293          	addi	t0,t0,22 # 80001f88 <hart_init+0xa8>
    80001f7a:	305292f3          	csrrw	t0,mtvec,t0
    80001f7e:	3b071073          	csrw	pmpaddr0,a4
    80001f82:	3a079073          	csrw	pmpcfg0,a5
    80001f86:	0001                	nop
    80001f88:	30529073          	csrw	mtvec,t0
    80001f8c:	8082                	ret
    80001f8e:	00005517          	auipc	a0,0x5
    80001f92:	da250513          	addi	a0,a0,-606 # 80006d30 <softfloat_countLeadingZeros8+0x1b8>
    80001f96:	00005697          	auipc	a3,0x5
    80001f9a:	23268693          	addi	a3,a3,562 # 800071c8 <softfloat_countLeadingZeros8+0x650>
    80001f9e:	04000613          	li	a2,64
    80001fa2:	00005597          	auipc	a1,0x5
    80001fa6:	1f658593          	addi	a1,a1,502 # 80007198 <softfloat_countLeadingZeros8+0x620>
    80001faa:	cf3ff0ef          	jal	ra,80001c9c <printm>
    80001fae:	6541                	lui	a0,0x10
    80001fb0:	157d                	addi	a0,a0,-1
    80001fb2:	d5bff0ef          	jal	ra,80001d0c <poweroff>
    80001fb6:	00005517          	auipc	a0,0x5
    80001fba:	d7a50513          	addi	a0,a0,-646 # 80006d30 <softfloat_countLeadingZeros8+0x1b8>
    80001fbe:	00005697          	auipc	a3,0x5
    80001fc2:	1ba68693          	addi	a3,a3,442 # 80007178 <softfloat_countLeadingZeros8+0x600>
    80001fc6:	03f00613          	li	a2,63
    80001fca:	00005597          	auipc	a1,0x5
    80001fce:	1ce58593          	addi	a1,a1,462 # 80007198 <softfloat_countLeadingZeros8+0x620>
    80001fd2:	ccbff0ef          	jal	ra,80001c9c <printm>
    80001fd6:	6541                	lui	a0,0x10
    80001fd8:	157d                	addi	a0,a0,-1
    80001fda:	d33ff0ef          	jal	ra,80001d0c <poweroff>

0000000080001fde <hart_plic_init>:
    80001fde:	6605                	lui	a2,0x1
    80001fe0:	960a                	add	a2,a2,sp
    80001fe2:	77fd                	lui	a5,0xfffff
    80001fe4:	8e7d                	and	a2,a2,a5
    80001fe6:	fc063703          	ld	a4,-64(a2) # fc0 <MEM_START-0x7ffff040>
    80001fea:	fd063783          	ld	a5,-48(a2)
    80001fee:	00072023          	sw	zero,0(a4)
    80001ff2:	577d                	li	a4,-1
    80001ff4:	e398                	sd	a4,0(a5)
    80001ff6:	34405073          	csrwi	mip,0
    80001ffa:	00011697          	auipc	a3,0x11
    80001ffe:	0366b683          	ld	a3,54(a3) # 80013030 <plic_ndevs>
    80002002:	ce9d                	beqz	a3,80002040 <hart_plic_init+0x62>
    80002004:	03f68693          	addi	a3,a3,63
    80002008:	8299                	srli	a3,a3,0x6
    8000200a:	ce91                	beqz	a3,80002026 <hart_plic_init+0x48>
    8000200c:	ff063583          	ld	a1,-16(a2)
    80002010:	068e                	slli	a3,a3,0x3
    80002012:	4781                	li	a5,0
    80002014:	557d                	li	a0,-1
    80002016:	c589                	beqz	a1,80002020 <hart_plic_init+0x42>
    80002018:	ff063703          	ld	a4,-16(a2)
    8000201c:	973e                	add	a4,a4,a5
    8000201e:	e308                	sd	a0,0(a4)
    80002020:	07a1                	addi	a5,a5,8
    80002022:	fef69ae3          	bne	a3,a5,80002016 <hart_plic_init+0x38>
    80002026:	6785                	lui	a5,0x1
    80002028:	777d                	lui	a4,0xfffff
    8000202a:	978a                	add	a5,a5,sp
    8000202c:	8ff9                	and	a5,a5,a4
    8000202e:	fd87b703          	ld	a4,-40(a5) # fd8 <MEM_START-0x7ffff028>
    80002032:	fe87b783          	ld	a5,-24(a5)
    80002036:	4685                	li	a3,1
    80002038:	c314                	sw	a3,0(a4)
    8000203a:	c399                	beqz	a5,80002040 <hart_plic_init+0x62>
    8000203c:	0007a023          	sw	zero,0(a5)
    80002040:	8082                	ret

0000000080002042 <hls_init>:
    80002042:	f14027f3          	csrr	a5,mhartid
    80002046:	40f507b3          	sub	a5,a0,a5
    8000204a:	6505                	lui	a0,0x1
    8000204c:	950a                	add	a0,a0,sp
    8000204e:	777d                	lui	a4,0xfffff
    80002050:	07b2                	slli	a5,a5,0xc
    80002052:	8d79                	and	a0,a0,a4
    80002054:	fc078793          	addi	a5,a5,-64
    80002058:	953e                	add	a0,a0,a5
    8000205a:	00053023          	sd	zero,0(a0) # 1000 <MEM_START-0x7ffff000>
    8000205e:	00053423          	sd	zero,8(a0)
    80002062:	00053823          	sd	zero,16(a0)
    80002066:	00053c23          	sd	zero,24(a0)
    8000206a:	02053023          	sd	zero,32(a0)
    8000206e:	02053423          	sd	zero,40(a0)
    80002072:	02053823          	sd	zero,48(a0)
    80002076:	8082                	ret

0000000080002078 <init_first_hart>:
    80002078:	1141                	addi	sp,sp,-16
    8000207a:	00007517          	auipc	a0,0x7
    8000207e:	00650513          	addi	a0,a0,6 # 80009080 <dtb_start>
    80002082:	e406                	sd	ra,8(sp)
    80002084:	510000ef          	jal	ra,80002594 <query_uart>
    80002088:	00007517          	auipc	a0,0x7
    8000208c:	ff850513          	addi	a0,a0,-8 # 80009080 <dtb_start>
    80002090:	602000ef          	jal	ra,80002692 <query_xuart>
    80002094:	00007517          	auipc	a0,0x7
    80002098:	fec50513          	addi	a0,a0,-20 # 80009080 <dtb_start>
    8000209c:	71e000ef          	jal	ra,800027ba <query_uartlite>
    800020a0:	00007517          	auipc	a0,0x7
    800020a4:	fe050513          	addi	a0,a0,-32 # 80009080 <dtb_start>
    800020a8:	179000ef          	jal	ra,80002a20 <query_uart16550>
    800020ac:	00007517          	auipc	a0,0x7
    800020b0:	fd450513          	addi	a0,a0,-44 # 80009080 <dtb_start>
    800020b4:	3dc000ef          	jal	ra,80002490 <query_htif>
    800020b8:	00005517          	auipc	a0,0x5
    800020bc:	13050513          	addi	a0,a0,304 # 800071e8 <softfloat_countLeadingZeros8+0x670>
    800020c0:	bddff0ef          	jal	ra,80001c9c <printm>
    800020c4:	e1dff0ef          	jal	ra,80001ee0 <hart_init>
    800020c8:	4501                	li	a0,0
    800020ca:	f79ff0ef          	jal	ra,80002042 <hls_init>
    800020ce:	00007517          	auipc	a0,0x7
    800020d2:	fb250513          	addi	a0,a0,-78 # 80009080 <dtb_start>
    800020d6:	241000ef          	jal	ra,80002b16 <query_finisher>
    800020da:	00007517          	auipc	a0,0x7
    800020de:	fa650513          	addi	a0,a0,-90 # 80009080 <dtb_start>
    800020e2:	f82ff0ef          	jal	ra,80001864 <query_mem>
    800020e6:	00007517          	auipc	a0,0x7
    800020ea:	f9a50513          	addi	a0,a0,-102 # 80009080 <dtb_start>
    800020ee:	fe2ff0ef          	jal	ra,800018d0 <query_harts>
    800020f2:	00007517          	auipc	a0,0x7
    800020f6:	f8e50513          	addi	a0,a0,-114 # 80009080 <dtb_start>
    800020fa:	855ff0ef          	jal	ra,8000194e <query_clint>
    800020fe:	00007517          	auipc	a0,0x7
    80002102:	f8250513          	addi	a0,a0,-126 # 80009080 <dtb_start>
    80002106:	8abff0ef          	jal	ra,800019b0 <query_plic>
    8000210a:	00007517          	auipc	a0,0x7
    8000210e:	f7650513          	addi	a0,a0,-138 # 80009080 <dtb_start>
    80002112:	94bff0ef          	jal	ra,80001a5c <query_chosen>
    80002116:	00011597          	auipc	a1,0x11
    8000211a:	f0a5b583          	ld	a1,-246(a1) # 80013020 <disabled_hart_mask>
    8000211e:	00011797          	auipc	a5,0x11
    80002122:	f0a7b783          	ld	a5,-246(a5) # 80013028 <hart_mask>
    80002126:	fff5c593          	not	a1,a1
    8000212a:	6605                	lui	a2,0x1
    8000212c:	960a                	add	a2,a2,sp
    8000212e:	8dfd                	and	a1,a1,a5
    80002130:	77fd                	lui	a5,0xfffff
    80002132:	8e7d                	and	a2,a2,a5
    80002134:	4701                	li	a4,0
    80002136:	4885                	li	a7,1
    80002138:	4821                	li	a6,8
    8000213a:	f1402573          	csrr	a0,mhartid
    8000213e:	40a707b3          	sub	a5,a4,a0
    80002142:	00e5d6b3          	srl	a3,a1,a4
    80002146:	07b2                	slli	a5,a5,0xc
    80002148:	8a85                	andi	a3,a3,1
    8000214a:	97b2                	add	a5,a5,a2
    8000214c:	0705                	addi	a4,a4,1
    8000214e:	c689                	beqz	a3,80002158 <init_first_hart+0xe0>
    80002150:	fc07b783          	ld	a5,-64(a5) # ffffffffffffefc0 <_payload_end+0xffffffff7fc2721c>
    80002154:	0117a023          	sw	a7,0(a5)
    80002158:	ff0713e3          	bne	a4,a6,8000213e <init_first_hart+0xc6>
    8000215c:	00011797          	auipc	a5,0x11
    80002160:	ed47b783          	ld	a5,-300(a5) # 80013030 <plic_ndevs>
    80002164:	c385                	beqz	a5,80002184 <init_first_hart+0x10c>
    80002166:	00011697          	auipc	a3,0x11
    8000216a:	ed26b683          	ld	a3,-302(a3) # 80013038 <plic_priorities>
    8000216e:	00279713          	slli	a4,a5,0x2
    80002172:	4605                	li	a2,1
    80002174:	00468793          	addi	a5,a3,4
    80002178:	96ba                	add	a3,a3,a4
    8000217a:	873e                	mv	a4,a5
    8000217c:	c390                	sw	a2,0(a5)
    8000217e:	0791                	addi	a5,a5,4
    80002180:	fed71de3          	bne	a4,a3,8000217a <init_first_hart+0x102>
    80002184:	e5bff0ef          	jal	ra,80001fde <hart_plic_init>
    80002188:	00011717          	auipc	a4,0x11
    8000218c:	eb870713          	addi	a4,a4,-328 # 80013040 <mem_size>
    80002190:	631c                	ld	a5,0(a4)
    80002192:	ffe006b7          	lui	a3,0xffe00
    80002196:	60a2                	ld	ra,8(sp)
    80002198:	8ff5                	and	a5,a5,a3
    8000219a:	e31c                	sd	a5,0(a4)
    8000219c:	00007517          	auipc	a0,0x7
    800021a0:	ee450513          	addi	a0,a0,-284 # 80009080 <dtb_start>
    800021a4:	0141                	addi	sp,sp,16
    800021a6:	a2afe06f          	j	800003d0 <boot_loader>

00000000800021aa <init_other_hart>:
    800021aa:	1141                	addi	sp,sp,-16
    800021ac:	e406                	sd	ra,8(sp)
    800021ae:	e022                	sd	s0,0(sp)
    800021b0:	842e                	mv	s0,a1
    800021b2:	d2fff0ef          	jal	ra,80001ee0 <hart_init>
    800021b6:	e29ff0ef          	jal	ra,80001fde <hart_plic_init>
    800021ba:	8522                	mv	a0,s0
    800021bc:	6402                	ld	s0,0(sp)
    800021be:	60a2                	ld	ra,8(sp)
    800021c0:	0141                	addi	sp,sp,16
    800021c2:	92efe06f          	j	800002f0 <boot_other_hart>

00000000800021c6 <setup_pmp>:
    800021c6:	47fd                	li	a5,31
    800021c8:	577d                	li	a4,-1
    800021ca:	00000297          	auipc	t0,0x0
    800021ce:	01628293          	addi	t0,t0,22 # 800021e0 <setup_pmp+0x1a>
    800021d2:	305292f3          	csrrw	t0,mtvec,t0
    800021d6:	3b071073          	csrw	pmpaddr0,a4
    800021da:	3a079073          	csrw	pmpcfg0,a5
    800021de:	0001                	nop
    800021e0:	30529073          	csrw	mtvec,t0
    800021e4:	8082                	ret

00000000800021e6 <enter_supervisor_mode>:
    800021e6:	86aa                	mv	a3,a0
    800021e8:	852e                	mv	a0,a1
    800021ea:	85b2                	mv	a1,a2
    800021ec:	30002773          	csrr	a4,mstatus
    800021f0:	7679                	lui	a2,0xffffe
    800021f2:	6785                	lui	a5,0x1
    800021f4:	77f60613          	addi	a2,a2,1919 # ffffffffffffe77f <_payload_end+0xffffffff7fc269db>
    800021f8:	8f71                	and	a4,a4,a2
    800021fa:	80078613          	addi	a2,a5,-2048 # 800 <MEM_START-0x7ffff800>
    800021fe:	8f51                	or	a4,a4,a2
    80002200:	30071073          	csrw	mstatus,a4
    80002204:	777d                	lui	a4,0xfffff
    80002206:	978a                	add	a5,a5,sp
    80002208:	8ff9                	and	a5,a5,a4
    8000220a:	dc078713          	addi	a4,a5,-576
    8000220e:	34071073          	csrw	mscratch,a4
    80002212:	dc07b023          	sd	zero,-576(a5)
    80002216:	34169073          	csrw	mepc,a3
    8000221a:	30200073          	mret

000000008000221e <enter_machine_mode>:
    8000221e:	1141                	addi	sp,sp,-16
    80002220:	872a                	mv	a4,a0
    80002222:	e406                	sd	ra,8(sp)
    80002224:	852e                	mv	a0,a1
    80002226:	85b2                	mv	a1,a2
    80002228:	300027f3          	csrr	a5,mstatus
    8000222c:	f7f7f793          	andi	a5,a5,-129
    80002230:	30079073          	csrw	mstatus,a5
    80002234:	6785                	lui	a5,0x1
    80002236:	978a                	add	a5,a5,sp
    80002238:	76fd                	lui	a3,0xfffff
    8000223a:	8ff5                	and	a5,a5,a3
    8000223c:	dc078793          	addi	a5,a5,-576 # dc0 <MEM_START-0x7ffff240>
    80002240:	34079073          	csrw	mscratch,a5
    80002244:	9702                	jalr	a4
	...

0000000080002248 <htif_done>:
    80002248:	419c                	lw	a5,0(a1)
    8000224a:	c791                	beqz	a5,80002256 <htif_done+0xe>
    8000224c:	4785                	li	a5,1
    8000224e:	00011717          	auipc	a4,0x11
    80002252:	e0f73d23          	sd	a5,-486(a4) # 80013068 <htif>
    80002256:	8082                	ret

0000000080002258 <htif_open>:
    80002258:	00058023          	sb	zero,0(a1)
    8000225c:	000580a3          	sb	zero,1(a1)
    80002260:	00058123          	sb	zero,2(a1)
    80002264:	000581a3          	sb	zero,3(a1)
    80002268:	8082                	ret

000000008000226a <__check_fromhost>:
    8000226a:	00006797          	auipc	a5,0x6
    8000226e:	d967b783          	ld	a5,-618(a5) # 80008000 <fromhost>
    80002272:	cf9d                	beqz	a5,800022b0 <__check_fromhost+0x46>
    80002274:	1141                	addi	sp,sp,-16
    80002276:	00006717          	auipc	a4,0x6
    8000227a:	d8073523          	sd	zero,-630(a4) # 80008000 <fromhost>
    8000227e:	e406                	sd	ra,8(sp)
    80002280:	0387d693          	srli	a3,a5,0x38
    80002284:	4705                	li	a4,1
    80002286:	02e69663          	bne	a3,a4,800022b2 <__check_fromhost+0x48>
    8000228a:	00879713          	slli	a4,a5,0x8
    8000228e:	9361                	srli	a4,a4,0x38
    80002290:	c711                	beqz	a4,8000229c <__check_fromhost+0x32>
    80002292:	04d71363          	bne	a4,a3,800022d8 <__check_fromhost+0x6e>
    80002296:	60a2                	ld	ra,8(sp)
    80002298:	0141                	addi	sp,sp,16
    8000229a:	8082                	ret
    8000229c:	60a2                	ld	ra,8(sp)
    8000229e:	0ff7f793          	andi	a5,a5,255
    800022a2:	2785                	addiw	a5,a5,1
    800022a4:	00011717          	auipc	a4,0x11
    800022a8:	dcf72623          	sw	a5,-564(a4) # 80013070 <htif_console_buf>
    800022ac:	0141                	addi	sp,sp,16
    800022ae:	8082                	ret
    800022b0:	8082                	ret
    800022b2:	00005517          	auipc	a0,0x5
    800022b6:	a7e50513          	addi	a0,a0,-1410 # 80006d30 <softfloat_countLeadingZeros8+0x1b8>
    800022ba:	00005697          	auipc	a3,0x5
    800022be:	f3e68693          	addi	a3,a3,-194 # 800071f8 <softfloat_countLeadingZeros8+0x680>
    800022c2:	467d                	li	a2,31
    800022c4:	00005597          	auipc	a1,0x5
    800022c8:	f4c58593          	addi	a1,a1,-180 # 80007210 <softfloat_countLeadingZeros8+0x698>
    800022cc:	9d1ff0ef          	jal	ra,80001c9c <printm>
    800022d0:	6541                	lui	a0,0x10
    800022d2:	157d                	addi	a0,a0,-1
    800022d4:	a39ff0ef          	jal	ra,80001d0c <poweroff>
    800022d8:	00005517          	auipc	a0,0x5
    800022dc:	a5850513          	addi	a0,a0,-1448 # 80006d30 <softfloat_countLeadingZeros8+0x1b8>
    800022e0:	00005697          	auipc	a3,0x5
    800022e4:	b8068693          	addi	a3,a3,-1152 # 80006e60 <softfloat_countLeadingZeros8+0x2e8>
    800022e8:	02700613          	li	a2,39
    800022ec:	00005597          	auipc	a1,0x5
    800022f0:	f2458593          	addi	a1,a1,-220 # 80007210 <softfloat_countLeadingZeros8+0x698>
    800022f4:	9a9ff0ef          	jal	ra,80001c9c <printm>
    800022f8:	6541                	lui	a0,0x10
    800022fa:	157d                	addi	a0,a0,-1
    800022fc:	a11ff0ef          	jal	ra,80001d0c <poweroff>

0000000080002300 <htif_prop>:
    80002300:	1101                	addi	sp,sp,-32
    80002302:	e822                	sd	s0,16(sp)
    80002304:	842a                	mv	s0,a0
    80002306:	6508                	ld	a0,8(a0)
    80002308:	e426                	sd	s1,8(sp)
    8000230a:	84ae                	mv	s1,a1
    8000230c:	00005597          	auipc	a1,0x5
    80002310:	d4458593          	addi	a1,a1,-700 # 80007050 <softfloat_countLeadingZeros8+0x4d8>
    80002314:	ec06                	sd	ra,24(sp)
    80002316:	1a2040ef          	jal	ra,800064b8 <strcmp>
    8000231a:	e919                	bnez	a0,80002330 <htif_prop+0x30>
    8000231c:	6808                	ld	a0,16(s0)
    8000231e:	00005597          	auipc	a1,0x5
    80002322:	f2258593          	addi	a1,a1,-222 # 80007240 <softfloat_countLeadingZeros8+0x6c8>
    80002326:	192040ef          	jal	ra,800064b8 <strcmp>
    8000232a:	e119                	bnez	a0,80002330 <htif_prop+0x30>
    8000232c:	4785                	li	a5,1
    8000232e:	c09c                	sw	a5,0(s1)
    80002330:	60e2                	ld	ra,24(sp)
    80002332:	6442                	ld	s0,16(sp)
    80002334:	64a2                	ld	s1,8(sp)
    80002336:	6105                	addi	sp,sp,32
    80002338:	8082                	ret

000000008000233a <htif_console_getchar>:
    8000233a:	1101                	addi	sp,sp,-32
    8000233c:	ec06                	sd	ra,24(sp)
    8000233e:	e822                	sd	s0,16(sp)
    80002340:	e426                	sd	s1,8(sp)
    80002342:	00011717          	auipc	a4,0x11
    80002346:	cc670713          	addi	a4,a4,-826 # 80013008 <htif_lock>
    8000234a:	56fd                	li	a3,-1
    8000234c:	431c                	lw	a5,0(a4)
    8000234e:	2781                	sext.w	a5,a5
    80002350:	fff5                	bnez	a5,8000234c <htif_console_getchar+0x12>
    80002352:	87b6                	mv	a5,a3
    80002354:	0cf727af          	amoswap.w.aq	a5,a5,(a4)
    80002358:	2781                	sext.w	a5,a5
    8000235a:	0ff0000f          	fence
    8000235e:	f7fd                	bnez	a5,8000234c <htif_console_getchar+0x12>
    80002360:	f0bff0ef          	jal	ra,8000226a <__check_fromhost>
    80002364:	00011497          	auipc	s1,0x11
    80002368:	d0c4a483          	lw	s1,-756(s1) # 80013070 <htif_console_buf>
    8000236c:	0204c463          	bltz	s1,80002394 <htif_console_getchar+0x5a>
    80002370:	57fd                	li	a5,-1
    80002372:	00011717          	auipc	a4,0x11
    80002376:	cef72f23          	sw	a5,-770(a4) # 80013070 <htif_console_buf>
    8000237a:	00006417          	auipc	s0,0x6
    8000237e:	c8640413          	addi	s0,s0,-890 # 80008000 <fromhost>
    80002382:	641c                	ld	a5,8(s0)
    80002384:	c789                	beqz	a5,8000238e <htif_console_getchar+0x54>
    80002386:	ee5ff0ef          	jal	ra,8000226a <__check_fromhost>
    8000238a:	641c                	ld	a5,8(s0)
    8000238c:	ffed                	bnez	a5,80002386 <htif_console_getchar+0x4c>
    8000238e:	4785                	li	a5,1
    80002390:	17e2                	slli	a5,a5,0x38
    80002392:	e41c                	sd	a5,8(s0)
    80002394:	0ff0000f          	fence
    80002398:	60e2                	ld	ra,24(sp)
    8000239a:	6442                	ld	s0,16(sp)
    8000239c:	00011797          	auipc	a5,0x11
    800023a0:	c607a623          	sw	zero,-916(a5) # 80013008 <htif_lock>
    800023a4:	fff4851b          	addiw	a0,s1,-1
    800023a8:	64a2                	ld	s1,8(sp)
    800023aa:	6105                	addi	sp,sp,32
    800023ac:	8082                	ret

00000000800023ae <htif_syscall>:
    800023ae:	1101                	addi	sp,sp,-32
    800023b0:	e426                	sd	s1,8(sp)
    800023b2:	ec06                	sd	ra,24(sp)
    800023b4:	e822                	sd	s0,16(sp)
    800023b6:	84aa                	mv	s1,a0
    800023b8:	00011797          	auipc	a5,0x11
    800023bc:	c5078793          	addi	a5,a5,-944 # 80013008 <htif_lock>
    800023c0:	56fd                	li	a3,-1
    800023c2:	4398                	lw	a4,0(a5)
    800023c4:	2701                	sext.w	a4,a4
    800023c6:	ff75                	bnez	a4,800023c2 <htif_syscall+0x14>
    800023c8:	8736                	mv	a4,a3
    800023ca:	0ce7a72f          	amoswap.w.aq	a4,a4,(a5)
    800023ce:	2701                	sext.w	a4,a4
    800023d0:	0ff0000f          	fence
    800023d4:	f77d                	bnez	a4,800023c2 <htif_syscall+0x14>
    800023d6:	00006417          	auipc	s0,0x6
    800023da:	c2a40413          	addi	s0,s0,-982 # 80008000 <fromhost>
    800023de:	641c                	ld	a5,8(s0)
    800023e0:	c789                	beqz	a5,800023ea <htif_syscall+0x3c>
    800023e2:	e89ff0ef          	jal	ra,8000226a <__check_fromhost>
    800023e6:	641c                	ld	a5,8(s0)
    800023e8:	ffed                	bnez	a5,800023e2 <htif_syscall+0x34>
    800023ea:	e404                	sd	s1,8(s0)
    800023ec:	601c                	ld	a5,0(s0)
    800023ee:	dffd                	beqz	a5,800023ec <htif_syscall+0x3e>
    800023f0:	00879713          	slli	a4,a5,0x8
    800023f4:	8fd9                	or	a5,a5,a4
    800023f6:	93e1                	srli	a5,a5,0x38
    800023f8:	c781                	beqz	a5,80002400 <htif_syscall+0x52>
    800023fa:	e71ff0ef          	jal	ra,8000226a <__check_fromhost>
    800023fe:	b7fd                	j	800023ec <htif_syscall+0x3e>
    80002400:	00006797          	auipc	a5,0x6
    80002404:	c007b023          	sd	zero,-1024(a5) # 80008000 <fromhost>
    80002408:	0ff0000f          	fence
    8000240c:	60e2                	ld	ra,24(sp)
    8000240e:	6442                	ld	s0,16(sp)
    80002410:	00011797          	auipc	a5,0x11
    80002414:	be07ac23          	sw	zero,-1032(a5) # 80013008 <htif_lock>
    80002418:	64a2                	ld	s1,8(sp)
    8000241a:	6105                	addi	sp,sp,32
    8000241c:	8082                	ret

000000008000241e <htif_console_putchar>:
    8000241e:	1101                	addi	sp,sp,-32
    80002420:	e426                	sd	s1,8(sp)
    80002422:	ec06                	sd	ra,24(sp)
    80002424:	e822                	sd	s0,16(sp)
    80002426:	84aa                	mv	s1,a0
    80002428:	00011717          	auipc	a4,0x11
    8000242c:	be070713          	addi	a4,a4,-1056 # 80013008 <htif_lock>
    80002430:	56fd                	li	a3,-1
    80002432:	431c                	lw	a5,0(a4)
    80002434:	2781                	sext.w	a5,a5
    80002436:	fff5                	bnez	a5,80002432 <htif_console_putchar+0x14>
    80002438:	87b6                	mv	a5,a3
    8000243a:	0cf727af          	amoswap.w.aq	a5,a5,(a4)
    8000243e:	2781                	sext.w	a5,a5
    80002440:	0ff0000f          	fence
    80002444:	f7fd                	bnez	a5,80002432 <htif_console_putchar+0x14>
    80002446:	00006417          	auipc	s0,0x6
    8000244a:	bba40413          	addi	s0,s0,-1094 # 80008000 <fromhost>
    8000244e:	641c                	ld	a5,8(s0)
    80002450:	c789                	beqz	a5,8000245a <htif_console_putchar+0x3c>
    80002452:	e19ff0ef          	jal	ra,8000226a <__check_fromhost>
    80002456:	641c                	ld	a5,8(s0)
    80002458:	ffed                	bnez	a5,80002452 <htif_console_putchar+0x34>
    8000245a:	10100513          	li	a0,257
    8000245e:	1542                	slli	a0,a0,0x30
    80002460:	8cc9                	or	s1,s1,a0
    80002462:	e404                	sd	s1,8(s0)
    80002464:	0ff0000f          	fence
    80002468:	60e2                	ld	ra,24(sp)
    8000246a:	6442                	ld	s0,16(sp)
    8000246c:	00011797          	auipc	a5,0x11
    80002470:	b807ae23          	sw	zero,-1124(a5) # 80013008 <htif_lock>
    80002474:	64a2                	ld	s1,8(sp)
    80002476:	6105                	addi	sp,sp,32
    80002478:	8082                	ret

000000008000247a <htif_poweroff>:
    8000247a:	00006717          	auipc	a4,0x6
    8000247e:	b8670713          	addi	a4,a4,-1146 # 80008000 <fromhost>
    80002482:	4785                	li	a5,1
    80002484:	00006697          	auipc	a3,0x6
    80002488:	b606be23          	sd	zero,-1156(a3) # 80008000 <fromhost>
    8000248c:	e71c                	sd	a5,8(a4)
    8000248e:	bfdd                	j	80002484 <htif_poweroff+0xa>

0000000080002490 <query_htif>:
    80002490:	7139                	addi	sp,sp,-64
    80002492:	00000797          	auipc	a5,0x0
    80002496:	dc678793          	addi	a5,a5,-570 # 80002258 <htif_open>
    8000249a:	e43e                	sd	a5,8(sp)
    8000249c:	00000797          	auipc	a5,0x0
    800024a0:	e6478793          	addi	a5,a5,-412 # 80002300 <htif_prop>
    800024a4:	e83e                	sd	a5,16(sp)
    800024a6:	002c                	addi	a1,sp,8
    800024a8:	00000797          	auipc	a5,0x0
    800024ac:	da078793          	addi	a5,a5,-608 # 80002248 <htif_done>
    800024b0:	fc06                	sd	ra,56(sp)
    800024b2:	f002                	sd	zero,32(sp)
    800024b4:	ec3e                	sd	a5,24(sp)
    800024b6:	f40a                	sd	sp,40(sp)
    800024b8:	e6bfe0ef          	jal	ra,80001322 <fdt_scan>
    800024bc:	70e2                	ld	ra,56(sp)
    800024be:	6121                	addi	sp,sp,64
    800024c0:	8082                	ret

00000000800024c2 <uart_done>:
    800024c2:	419c                	lw	a5,0(a1)
    800024c4:	cb89                	beqz	a5,800024d6 <uart_done+0x14>
    800024c6:	659c                	ld	a5,8(a1)
    800024c8:	c799                	beqz	a5,800024d6 <uart_done+0x14>
    800024ca:	00011717          	auipc	a4,0x11
    800024ce:	bae70713          	addi	a4,a4,-1106 # 80013078 <uart>
    800024d2:	6314                	ld	a3,0(a4)
    800024d4:	c291                	beqz	a3,800024d8 <uart_done+0x16>
    800024d6:	8082                	ret
    800024d8:	4685                	li	a3,1
    800024da:	c794                	sw	a3,8(a5)
    800024dc:	e31c                	sd	a5,0(a4)
    800024de:	c7d4                	sw	a3,12(a5)
    800024e0:	8082                	ret

00000000800024e2 <uart_open>:
    800024e2:	852e                	mv	a0,a1
    800024e4:	4641                	li	a2,16
    800024e6:	4581                	li	a1,0
    800024e8:	7710306f          	j	80006458 <memset>

00000000800024ec <uart_prop>:
    800024ec:	1101                	addi	sp,sp,-32
    800024ee:	e04a                	sd	s2,0(sp)
    800024f0:	00853903          	ld	s2,8(a0) # 10008 <MEM_START-0x7ffefff8>
    800024f4:	e822                	sd	s0,16(sp)
    800024f6:	e426                	sd	s1,8(sp)
    800024f8:	842a                	mv	s0,a0
    800024fa:	84ae                	mv	s1,a1
    800024fc:	854a                	mv	a0,s2
    800024fe:	00005597          	auipc	a1,0x5
    80002502:	b5258593          	addi	a1,a1,-1198 # 80007050 <softfloat_countLeadingZeros8+0x4d8>
    80002506:	ec06                	sd	ra,24(sp)
    80002508:	7b1030ef          	jal	ra,800064b8 <strcmp>
    8000250c:	e909                	bnez	a0,8000251e <uart_prop+0x32>
    8000250e:	6808                	ld	a0,16(s0)
    80002510:	00005597          	auipc	a1,0x5
    80002514:	d4058593          	addi	a1,a1,-704 # 80007250 <softfloat_countLeadingZeros8+0x6d8>
    80002518:	7a1030ef          	jal	ra,800064b8 <strcmp>
    8000251c:	cd19                	beqz	a0,8000253a <uart_prop+0x4e>
    8000251e:	00005597          	auipc	a1,0x5
    80002522:	97258593          	addi	a1,a1,-1678 # 80006e90 <softfloat_countLeadingZeros8+0x318>
    80002526:	854a                	mv	a0,s2
    80002528:	791030ef          	jal	ra,800064b8 <strcmp>
    8000252c:	cd19                	beqz	a0,8000254a <uart_prop+0x5e>
    8000252e:	60e2                	ld	ra,24(sp)
    80002530:	6442                	ld	s0,16(sp)
    80002532:	64a2                	ld	s1,8(sp)
    80002534:	6902                	ld	s2,0(sp)
    80002536:	6105                	addi	sp,sp,32
    80002538:	8082                	ret
    8000253a:	60e2                	ld	ra,24(sp)
    8000253c:	6442                	ld	s0,16(sp)
    8000253e:	4785                	li	a5,1
    80002540:	c09c                	sw	a5,0(s1)
    80002542:	6902                	ld	s2,0(sp)
    80002544:	64a2                	ld	s1,8(sp)
    80002546:	6105                	addi	sp,sp,32
    80002548:	8082                	ret
    8000254a:	601c                	ld	a5,0(s0)
    8000254c:	680c                	ld	a1,16(s0)
    8000254e:	6442                	ld	s0,16(sp)
    80002550:	60e2                	ld	ra,24(sp)
    80002552:	6902                	ld	s2,0(sp)
    80002554:	6388                	ld	a0,0(a5)
    80002556:	00848613          	addi	a2,s1,8
    8000255a:	64a2                	ld	s1,8(sp)
    8000255c:	6105                	addi	sp,sp,32
    8000255e:	efbfe06f          	j	80001458 <fdt_get_address>

0000000080002562 <uart_putchar>:
    80002562:	00011697          	auipc	a3,0x11
    80002566:	b1668693          	addi	a3,a3,-1258 # 80013078 <uart>
    8000256a:	629c                	ld	a5,0(a3)
    8000256c:	40a7a72f          	amoor.w	a4,a0,(a5)
    80002570:	02071793          	slli	a5,a4,0x20
    80002574:	fe07cbe3          	bltz	a5,8000256a <uart_putchar+0x8>
    80002578:	8082                	ret

000000008000257a <uart_getchar>:
    8000257a:	00011797          	auipc	a5,0x11
    8000257e:	afe7b783          	ld	a5,-1282(a5) # 80013078 <uart>
    80002582:	43dc                	lw	a5,4(a5)
    80002584:	2781                	sext.w	a5,a5
    80002586:	0007851b          	sext.w	a0,a5
    8000258a:	0007c363          	bltz	a5,80002590 <uart_getchar+0x16>
    8000258e:	8082                	ret
    80002590:	557d                	li	a0,-1
    80002592:	8082                	ret

0000000080002594 <query_uart>:
    80002594:	715d                	addi	sp,sp,-80
    80002596:	00000797          	auipc	a5,0x0
    8000259a:	f4c78793          	addi	a5,a5,-180 # 800024e2 <uart_open>
    8000259e:	ec3e                	sd	a5,24(sp)
    800025a0:	00000797          	auipc	a5,0x0
    800025a4:	f4c78793          	addi	a5,a5,-180 # 800024ec <uart_prop>
    800025a8:	f03e                	sd	a5,32(sp)
    800025aa:	00000797          	auipc	a5,0x0
    800025ae:	f1878793          	addi	a5,a5,-232 # 800024c2 <uart_done>
    800025b2:	f43e                	sd	a5,40(sp)
    800025b4:	082c                	addi	a1,sp,24
    800025b6:	003c                	addi	a5,sp,8
    800025b8:	e486                	sd	ra,72(sp)
    800025ba:	f802                	sd	zero,48(sp)
    800025bc:	fc3e                	sd	a5,56(sp)
    800025be:	d65fe0ef          	jal	ra,80001322 <fdt_scan>
    800025c2:	60a6                	ld	ra,72(sp)
    800025c4:	6161                	addi	sp,sp,80
    800025c6:	8082                	ret

00000000800025c8 <xuart_done>:
    800025c8:	419c                	lw	a5,0(a1)
    800025ca:	cb89                	beqz	a5,800025dc <xuart_done+0x14>
    800025cc:	659c                	ld	a5,8(a1)
    800025ce:	c799                	beqz	a5,800025dc <xuart_done+0x14>
    800025d0:	00011717          	auipc	a4,0x11
    800025d4:	a4070713          	addi	a4,a4,-1472 # 80013010 <xuart>
    800025d8:	6314                	ld	a3,0(a4)
    800025da:	c291                	beqz	a3,800025de <xuart_done+0x16>
    800025dc:	8082                	ret
    800025de:	e31c                	sd	a5,0(a4)
    800025e0:	8082                	ret

00000000800025e2 <xuart_open>:
    800025e2:	852e                	mv	a0,a1
    800025e4:	4641                	li	a2,16
    800025e6:	4581                	li	a1,0
    800025e8:	6710306f          	j	80006458 <memset>

00000000800025ec <xuart_prop>:
    800025ec:	1101                	addi	sp,sp,-32
    800025ee:	e04a                	sd	s2,0(sp)
    800025f0:	00853903          	ld	s2,8(a0)
    800025f4:	e822                	sd	s0,16(sp)
    800025f6:	e426                	sd	s1,8(sp)
    800025f8:	842a                	mv	s0,a0
    800025fa:	84ae                	mv	s1,a1
    800025fc:	854a                	mv	a0,s2
    800025fe:	00005597          	auipc	a1,0x5
    80002602:	a5258593          	addi	a1,a1,-1454 # 80007050 <softfloat_countLeadingZeros8+0x4d8>
    80002606:	ec06                	sd	ra,24(sp)
    80002608:	6b1030ef          	jal	ra,800064b8 <strcmp>
    8000260c:	e909                	bnez	a0,8000261e <xuart_prop+0x32>
    8000260e:	6808                	ld	a0,16(s0)
    80002610:	00005597          	auipc	a1,0x5
    80002614:	c5058593          	addi	a1,a1,-944 # 80007260 <softfloat_countLeadingZeros8+0x6e8>
    80002618:	6a1030ef          	jal	ra,800064b8 <strcmp>
    8000261c:	cd19                	beqz	a0,8000263a <xuart_prop+0x4e>
    8000261e:	00005597          	auipc	a1,0x5
    80002622:	87258593          	addi	a1,a1,-1934 # 80006e90 <softfloat_countLeadingZeros8+0x318>
    80002626:	854a                	mv	a0,s2
    80002628:	691030ef          	jal	ra,800064b8 <strcmp>
    8000262c:	cd19                	beqz	a0,8000264a <xuart_prop+0x5e>
    8000262e:	60e2                	ld	ra,24(sp)
    80002630:	6442                	ld	s0,16(sp)
    80002632:	64a2                	ld	s1,8(sp)
    80002634:	6902                	ld	s2,0(sp)
    80002636:	6105                	addi	sp,sp,32
    80002638:	8082                	ret
    8000263a:	60e2                	ld	ra,24(sp)
    8000263c:	6442                	ld	s0,16(sp)
    8000263e:	4785                	li	a5,1
    80002640:	c09c                	sw	a5,0(s1)
    80002642:	6902                	ld	s2,0(sp)
    80002644:	64a2                	ld	s1,8(sp)
    80002646:	6105                	addi	sp,sp,32
    80002648:	8082                	ret
    8000264a:	601c                	ld	a5,0(s0)
    8000264c:	680c                	ld	a1,16(s0)
    8000264e:	6442                	ld	s0,16(sp)
    80002650:	60e2                	ld	ra,24(sp)
    80002652:	6902                	ld	s2,0(sp)
    80002654:	6388                	ld	a0,0(a5)
    80002656:	00848613          	addi	a2,s1,8
    8000265a:	64a2                	ld	s1,8(sp)
    8000265c:	6105                	addi	sp,sp,32
    8000265e:	dfbfe06f          	j	80001458 <fdt_get_address>

0000000080002662 <xuart_putchar>:
    80002662:	00011717          	auipc	a4,0x11
    80002666:	9ae73703          	ld	a4,-1618(a4) # 80013010 <xuart>
    8000266a:	02c74783          	lbu	a5,44(a4)
    8000266e:	8bc1                	andi	a5,a5,16
    80002670:	ffed                	bnez	a5,8000266a <xuart_putchar+0x8>
    80002672:	2501                	sext.w	a0,a0
    80002674:	db08                	sw	a0,48(a4)
    80002676:	8082                	ret

0000000080002678 <xuart_getchar>:
    80002678:	00011717          	auipc	a4,0x11
    8000267c:	99873703          	ld	a4,-1640(a4) # 80013010 <xuart>
    80002680:	02c74783          	lbu	a5,44(a4)
    80002684:	8b89                	andi	a5,a5,2
    80002686:	e781                	bnez	a5,8000268e <xuart_getchar+0x16>
    80002688:	5b08                	lw	a0,48(a4)
    8000268a:	2501                	sext.w	a0,a0
    8000268c:	8082                	ret
    8000268e:	557d                	li	a0,-1
    80002690:	8082                	ret

0000000080002692 <query_xuart>:
    80002692:	715d                	addi	sp,sp,-80
    80002694:	00000797          	auipc	a5,0x0
    80002698:	f4e78793          	addi	a5,a5,-178 # 800025e2 <xuart_open>
    8000269c:	ec3e                	sd	a5,24(sp)
    8000269e:	00000797          	auipc	a5,0x0
    800026a2:	f4e78793          	addi	a5,a5,-178 # 800025ec <xuart_prop>
    800026a6:	f03e                	sd	a5,32(sp)
    800026a8:	00000797          	auipc	a5,0x0
    800026ac:	f2078793          	addi	a5,a5,-224 # 800025c8 <xuart_done>
    800026b0:	f43e                	sd	a5,40(sp)
    800026b2:	082c                	addi	a1,sp,24
    800026b4:	003c                	addi	a5,sp,8
    800026b6:	e486                	sd	ra,72(sp)
    800026b8:	f802                	sd	zero,48(sp)
    800026ba:	fc3e                	sd	a5,56(sp)
    800026bc:	c67fe0ef          	jal	ra,80001322 <fdt_scan>
    800026c0:	60a6                	ld	ra,72(sp)
    800026c2:	6161                	addi	sp,sp,80
    800026c4:	8082                	ret

00000000800026c6 <uart_done>:
    800026c6:	419c                	lw	a5,0(a1)
    800026c8:	cb89                	beqz	a5,800026da <uart_done+0x14>
    800026ca:	659c                	ld	a5,8(a1)
    800026cc:	c799                	beqz	a5,800026da <uart_done+0x14>
    800026ce:	00011717          	auipc	a4,0x11
    800026d2:	9b270713          	addi	a4,a4,-1614 # 80013080 <uartlite>
    800026d6:	6314                	ld	a3,0(a4)
    800026d8:	c291                	beqz	a3,800026dc <uart_done+0x16>
    800026da:	8082                	ret
    800026dc:	e31c                	sd	a5,0(a4)
    800026de:	470d                	li	a4,3
    800026e0:	00e78623          	sb	a4,12(a5)
    800026e4:	8082                	ret

00000000800026e6 <uart_open>:
    800026e6:	852e                	mv	a0,a1
    800026e8:	4641                	li	a2,16
    800026ea:	4581                	li	a1,0
    800026ec:	56d0306f          	j	80006458 <memset>

00000000800026f0 <uart_prop>:
    800026f0:	1101                	addi	sp,sp,-32
    800026f2:	e04a                	sd	s2,0(sp)
    800026f4:	00853903          	ld	s2,8(a0)
    800026f8:	e822                	sd	s0,16(sp)
    800026fa:	e426                	sd	s1,8(sp)
    800026fc:	842a                	mv	s0,a0
    800026fe:	84ae                	mv	s1,a1
    80002700:	854a                	mv	a0,s2
    80002702:	00005597          	auipc	a1,0x5
    80002706:	94e58593          	addi	a1,a1,-1714 # 80007050 <softfloat_countLeadingZeros8+0x4d8>
    8000270a:	ec06                	sd	ra,24(sp)
    8000270c:	5ad030ef          	jal	ra,800064b8 <strcmp>
    80002710:	e909                	bnez	a0,80002722 <uart_prop+0x32>
    80002712:	6808                	ld	a0,16(s0)
    80002714:	00005597          	auipc	a1,0x5
    80002718:	b5c58593          	addi	a1,a1,-1188 # 80007270 <softfloat_countLeadingZeros8+0x6f8>
    8000271c:	59d030ef          	jal	ra,800064b8 <strcmp>
    80002720:	cd19                	beqz	a0,8000273e <uart_prop+0x4e>
    80002722:	00004597          	auipc	a1,0x4
    80002726:	76e58593          	addi	a1,a1,1902 # 80006e90 <softfloat_countLeadingZeros8+0x318>
    8000272a:	854a                	mv	a0,s2
    8000272c:	58d030ef          	jal	ra,800064b8 <strcmp>
    80002730:	cd19                	beqz	a0,8000274e <uart_prop+0x5e>
    80002732:	60e2                	ld	ra,24(sp)
    80002734:	6442                	ld	s0,16(sp)
    80002736:	64a2                	ld	s1,8(sp)
    80002738:	6902                	ld	s2,0(sp)
    8000273a:	6105                	addi	sp,sp,32
    8000273c:	8082                	ret
    8000273e:	60e2                	ld	ra,24(sp)
    80002740:	6442                	ld	s0,16(sp)
    80002742:	4785                	li	a5,1
    80002744:	c09c                	sw	a5,0(s1)
    80002746:	6902                	ld	s2,0(sp)
    80002748:	64a2                	ld	s1,8(sp)
    8000274a:	6105                	addi	sp,sp,32
    8000274c:	8082                	ret
    8000274e:	601c                	ld	a5,0(s0)
    80002750:	680c                	ld	a1,16(s0)
    80002752:	6442                	ld	s0,16(sp)
    80002754:	60e2                	ld	ra,24(sp)
    80002756:	6902                	ld	s2,0(sp)
    80002758:	6388                	ld	a0,0(a5)
    8000275a:	00848613          	addi	a2,s1,8
    8000275e:	64a2                	ld	s1,8(sp)
    80002760:	6105                	addi	sp,sp,32
    80002762:	cf7fe06f          	j	80001458 <fdt_get_address>

0000000080002766 <uartlite_putchar>:
    80002766:	1141                	addi	sp,sp,-16
    80002768:	e022                	sd	s0,0(sp)
    8000276a:	e406                	sd	ra,8(sp)
    8000276c:	47a9                	li	a5,10
    8000276e:	842a                	mv	s0,a0
    80002770:	02f50063          	beq	a0,a5,80002790 <uartlite_putchar+0x2a>
    80002774:	00011717          	auipc	a4,0x11
    80002778:	90c73703          	ld	a4,-1780(a4) # 80013080 <uartlite>
    8000277c:	00874783          	lbu	a5,8(a4)
    80002780:	8ba1                	andi	a5,a5,8
    80002782:	ffed                	bnez	a5,8000277c <uartlite_putchar+0x16>
    80002784:	00870223          	sb	s0,4(a4)
    80002788:	60a2                	ld	ra,8(sp)
    8000278a:	6402                	ld	s0,0(sp)
    8000278c:	0141                	addi	sp,sp,16
    8000278e:	8082                	ret
    80002790:	4535                	li	a0,13
    80002792:	fd5ff0ef          	jal	ra,80002766 <uartlite_putchar>
    80002796:	bff9                	j	80002774 <uartlite_putchar+0xe>

0000000080002798 <uartlite_getchar>:
    80002798:	00011717          	auipc	a4,0x11
    8000279c:	8e873703          	ld	a4,-1816(a4) # 80013080 <uartlite>
    800027a0:	00874783          	lbu	a5,8(a4)
    800027a4:	8b85                	andi	a5,a5,1
    800027a6:	cb81                	beqz	a5,800027b6 <uartlite_getchar+0x1e>
    800027a8:	00074503          	lbu	a0,0(a4)
    800027ac:	0185151b          	slliw	a0,a0,0x18
    800027b0:	4185551b          	sraiw	a0,a0,0x18
    800027b4:	8082                	ret
    800027b6:	557d                	li	a0,-1
    800027b8:	8082                	ret

00000000800027ba <query_uartlite>:
    800027ba:	715d                	addi	sp,sp,-80
    800027bc:	00000797          	auipc	a5,0x0
    800027c0:	f2a78793          	addi	a5,a5,-214 # 800026e6 <uart_open>
    800027c4:	ec3e                	sd	a5,24(sp)
    800027c6:	00000797          	auipc	a5,0x0
    800027ca:	f2a78793          	addi	a5,a5,-214 # 800026f0 <uart_prop>
    800027ce:	f03e                	sd	a5,32(sp)
    800027d0:	00000797          	auipc	a5,0x0
    800027d4:	ef678793          	addi	a5,a5,-266 # 800026c6 <uart_done>
    800027d8:	f43e                	sd	a5,40(sp)
    800027da:	082c                	addi	a1,sp,24
    800027dc:	003c                	addi	a5,sp,8
    800027de:	e486                	sd	ra,72(sp)
    800027e0:	f802                	sd	zero,48(sp)
    800027e2:	fc3e                	sd	a5,56(sp)
    800027e4:	b3ffe0ef          	jal	ra,80001322 <fdt_scan>
    800027e8:	60a6                	ld	ra,72(sp)
    800027ea:	6161                	addi	sp,sp,80
    800027ec:	8082                	ret

00000000800027ee <uart16550_done>:
    800027ee:	419c                	lw	a5,0(a1)
    800027f0:	cb89                	beqz	a5,80002802 <uart16550_done+0x14>
    800027f2:	6594                	ld	a3,8(a1)
    800027f4:	c699                	beqz	a3,80002802 <uart16550_done+0x14>
    800027f6:	00011717          	auipc	a4,0x11
    800027fa:	89270713          	addi	a4,a4,-1902 # 80013088 <uart16550>
    800027fe:	631c                	ld	a5,0(a4)
    80002800:	c391                	beqz	a5,80002804 <uart16550_done+0x16>
    80002802:	8082                	ret
    80002804:	4d90                	lw	a2,24(a1)
    80002806:	e651                	bnez	a2,80002892 <uart16550_done+0xa4>
    80002808:	00007617          	auipc	a2,0x7
    8000280c:	00462603          	lw	a2,4(a2) # 8000980c <uart16550_clock>
    80002810:	4ddc                	lw	a5,28(a1)
    80002812:	cb81                	beqz	a5,80002822 <uart16550_done+0x34>
    80002814:	0047979b          	slliw	a5,a5,0x4
    80002818:	02f657bb          	divuw	a5,a2,a5
    8000281c:	6541                	lui	a0,0x10
    8000281e:	00a7e663          	bltu	a5,a0,8000282a <uart16550_done+0x3c>
    80002822:	000967b7          	lui	a5,0x96
    80002826:	02f657bb          	divuw	a5,a2,a5
    8000282a:	49c8                	lw	a0,20(a1)
    8000282c:	0105e603          	lwu	a2,16(a1)
    80002830:	4585                	li	a1,1
    80002832:	00a595bb          	sllw	a1,a1,a0
    80002836:	96b2                	add	a3,a3,a2
    80002838:	e314                	sd	a3,0(a4)
    8000283a:	96ae                	add	a3,a3,a1
    8000283c:	00068023          	sb	zero,0(a3)
    80002840:	6310                	ld	a2,0(a4)
    80002842:	468d                	li	a3,3
    80002844:	00a696bb          	sllw	a3,a3,a0
    80002848:	9636                	add	a2,a2,a3
    8000284a:	f8000813          	li	a6,-128
    8000284e:	01060023          	sb	a6,0(a2)
    80002852:	6310                	ld	a2,0(a4)
    80002854:	0ff7f813          	andi	a6,a5,255
    80002858:	0087d79b          	srliw	a5,a5,0x8
    8000285c:	01060023          	sb	a6,0(a2)
    80002860:	6310                	ld	a2,0(a4)
    80002862:	0ff7f793          	andi	a5,a5,255
    80002866:	95b2                	add	a1,a1,a2
    80002868:	00f58023          	sb	a5,0(a1)
    8000286c:	630c                	ld	a1,0(a4)
    8000286e:	4789                	li	a5,2
    80002870:	00a7963b          	sllw	a2,a5,a0
    80002874:	96ae                	add	a3,a3,a1
    80002876:	478d                	li	a5,3
    80002878:	00f68023          	sb	a5,0(a3)
    8000287c:	631c                	ld	a5,0(a4)
    8000287e:	00010717          	auipc	a4,0x10
    80002882:	78a72d23          	sw	a0,1946(a4) # 80013018 <uart16550_reg_shift>
    80002886:	fc700713          	li	a4,-57
    8000288a:	97b2                	add	a5,a5,a2
    8000288c:	00e78023          	sb	a4,0(a5) # 96000 <MEM_START-0x7ff6a000>
    80002890:	8082                	ret
    80002892:	00007797          	auipc	a5,0x7
    80002896:	f6c7ad23          	sw	a2,-134(a5) # 8000980c <uart16550_clock>
    8000289a:	bf9d                	j	80002810 <uart16550_done+0x22>

000000008000289c <uart16550_open>:
    8000289c:	87ae                	mv	a5,a1
    8000289e:	1141                	addi	sp,sp,-16
    800028a0:	02000613          	li	a2,32
    800028a4:	4581                	li	a1,0
    800028a6:	853e                	mv	a0,a5
    800028a8:	e406                	sd	ra,8(sp)
    800028aa:	3af030ef          	jal	ra,80006458 <memset>
    800028ae:	60a2                	ld	ra,8(sp)
    800028b0:	6725                	lui	a4,0x9
    800028b2:	60070713          	addi	a4,a4,1536 # 9600 <MEM_START-0x7fff6a00>
    800028b6:	cd58                	sw	a4,28(a0)
    800028b8:	0141                	addi	sp,sp,16
    800028ba:	8082                	ret

00000000800028bc <uart16550_prop>:
    800028bc:	1101                	addi	sp,sp,-32
    800028be:	e426                	sd	s1,8(sp)
    800028c0:	6504                	ld	s1,8(a0)
    800028c2:	e822                	sd	s0,16(sp)
    800028c4:	e04a                	sd	s2,0(sp)
    800028c6:	842a                	mv	s0,a0
    800028c8:	892e                	mv	s2,a1
    800028ca:	8526                	mv	a0,s1
    800028cc:	00004597          	auipc	a1,0x4
    800028d0:	78458593          	addi	a1,a1,1924 # 80007050 <softfloat_countLeadingZeros8+0x4d8>
    800028d4:	ec06                	sd	ra,24(sp)
    800028d6:	3e3030ef          	jal	ra,800064b8 <strcmp>
    800028da:	cd25                	beqz	a0,80002952 <uart16550_prop+0x96>
    800028dc:	00004597          	auipc	a1,0x4
    800028e0:	5b458593          	addi	a1,a1,1460 # 80006e90 <softfloat_countLeadingZeros8+0x318>
    800028e4:	8526                	mv	a0,s1
    800028e6:	3d3030ef          	jal	ra,800064b8 <strcmp>
    800028ea:	c921                	beqz	a0,8000293a <uart16550_prop+0x7e>
    800028ec:	00005597          	auipc	a1,0x5
    800028f0:	9ac58593          	addi	a1,a1,-1620 # 80007298 <softfloat_countLeadingZeros8+0x720>
    800028f4:	8526                	mv	a0,s1
    800028f6:	3c3030ef          	jal	ra,800064b8 <strcmp>
    800028fa:	c559                	beqz	a0,80002988 <uart16550_prop+0xcc>
    800028fc:	00005597          	auipc	a1,0x5
    80002900:	9ac58593          	addi	a1,a1,-1620 # 800072a8 <softfloat_countLeadingZeros8+0x730>
    80002904:	8526                	mv	a0,s1
    80002906:	3b3030ef          	jal	ra,800064b8 <strcmp>
    8000290a:	c959                	beqz	a0,800029a0 <uart16550_prop+0xe4>
    8000290c:	00005597          	auipc	a1,0x5
    80002910:	9ac58593          	addi	a1,a1,-1620 # 800072b8 <softfloat_countLeadingZeros8+0x740>
    80002914:	8526                	mv	a0,s1
    80002916:	3a3030ef          	jal	ra,800064b8 <strcmp>
    8000291a:	c125                	beqz	a0,8000297a <uart16550_prop+0xbe>
    8000291c:	00005597          	auipc	a1,0x5
    80002920:	9ac58593          	addi	a1,a1,-1620 # 800072c8 <softfloat_countLeadingZeros8+0x750>
    80002924:	8526                	mv	a0,s1
    80002926:	393030ef          	jal	ra,800064b8 <strcmp>
    8000292a:	e131                	bnez	a0,8000296e <uart16550_prop+0xb2>
    8000292c:	4581                	li	a1,0
    8000292e:	8522                	mv	a0,s0
    80002930:	c09fe0ef          	jal	ra,80001538 <fdt_get_value>
    80002934:	00a92c23          	sw	a0,24(s2)
    80002938:	a81d                	j	8000296e <uart16550_prop+0xb2>
    8000293a:	601c                	ld	a5,0(s0)
    8000293c:	680c                	ld	a1,16(s0)
    8000293e:	6442                	ld	s0,16(sp)
    80002940:	60e2                	ld	ra,24(sp)
    80002942:	64a2                	ld	s1,8(sp)
    80002944:	6388                	ld	a0,0(a5)
    80002946:	00890613          	addi	a2,s2,8
    8000294a:	6902                	ld	s2,0(sp)
    8000294c:	6105                	addi	sp,sp,32
    8000294e:	b0bfe06f          	j	80001458 <fdt_get_address>
    80002952:	00005597          	auipc	a1,0x5
    80002956:	92e58593          	addi	a1,a1,-1746 # 80007280 <softfloat_countLeadingZeros8+0x708>
    8000295a:	8522                	mv	a0,s0
    8000295c:	c13fe0ef          	jal	ra,8000156e <fdt_string_list_index>
    80002960:	57fd                	li	a5,-1
    80002962:	84aa                	mv	s1,a0
    80002964:	04f50a63          	beq	a0,a5,800029b8 <uart16550_prop+0xfc>
    80002968:	4785                	li	a5,1
    8000296a:	00f92023          	sw	a5,0(s2)
    8000296e:	60e2                	ld	ra,24(sp)
    80002970:	6442                	ld	s0,16(sp)
    80002972:	64a2                	ld	s1,8(sp)
    80002974:	6902                	ld	s2,0(sp)
    80002976:	6105                	addi	sp,sp,32
    80002978:	8082                	ret
    8000297a:	4581                	li	a1,0
    8000297c:	8522                	mv	a0,s0
    8000297e:	bbbfe0ef          	jal	ra,80001538 <fdt_get_value>
    80002982:	00a92e23          	sw	a0,28(s2)
    80002986:	b7e5                	j	8000296e <uart16550_prop+0xb2>
    80002988:	8522                	mv	a0,s0
    8000298a:	4581                	li	a1,0
    8000298c:	badfe0ef          	jal	ra,80001538 <fdt_get_value>
    80002990:	60e2                	ld	ra,24(sp)
    80002992:	6442                	ld	s0,16(sp)
    80002994:	00a92a23          	sw	a0,20(s2)
    80002998:	64a2                	ld	s1,8(sp)
    8000299a:	6902                	ld	s2,0(sp)
    8000299c:	6105                	addi	sp,sp,32
    8000299e:	8082                	ret
    800029a0:	8522                	mv	a0,s0
    800029a2:	4581                	li	a1,0
    800029a4:	b95fe0ef          	jal	ra,80001538 <fdt_get_value>
    800029a8:	60e2                	ld	ra,24(sp)
    800029aa:	6442                	ld	s0,16(sp)
    800029ac:	00a92823          	sw	a0,16(s2)
    800029b0:	64a2                	ld	s1,8(sp)
    800029b2:	6902                	ld	s2,0(sp)
    800029b4:	6105                	addi	sp,sp,32
    800029b6:	8082                	ret
    800029b8:	00005597          	auipc	a1,0x5
    800029bc:	8d858593          	addi	a1,a1,-1832 # 80007290 <softfloat_countLeadingZeros8+0x718>
    800029c0:	8522                	mv	a0,s0
    800029c2:	badfe0ef          	jal	ra,8000156e <fdt_string_list_index>
    800029c6:	fa9511e3          	bne	a0,s1,80002968 <uart16550_prop+0xac>
    800029ca:	6404                	ld	s1,8(s0)
    800029cc:	bf01                	j	800028dc <uart16550_prop+0x20>

00000000800029ce <uart16550_putchar>:
    800029ce:	00010797          	auipc	a5,0x10
    800029d2:	64a7a783          	lw	a5,1610(a5) # 80013018 <uart16550_reg_shift>
    800029d6:	4715                	li	a4,5
    800029d8:	00010697          	auipc	a3,0x10
    800029dc:	6b06b683          	ld	a3,1712(a3) # 80013088 <uart16550>
    800029e0:	00f7173b          	sllw	a4,a4,a5
    800029e4:	9736                	add	a4,a4,a3
    800029e6:	00074783          	lbu	a5,0(a4)
    800029ea:	0207f793          	andi	a5,a5,32
    800029ee:	dfe5                	beqz	a5,800029e6 <uart16550_putchar+0x18>
    800029f0:	00a68023          	sb	a0,0(a3)
    800029f4:	8082                	ret

00000000800029f6 <uart16550_getchar>:
    800029f6:	00010697          	auipc	a3,0x10
    800029fa:	6226a683          	lw	a3,1570(a3) # 80013018 <uart16550_reg_shift>
    800029fe:	4795                	li	a5,5
    80002a00:	00010717          	auipc	a4,0x10
    80002a04:	68873703          	ld	a4,1672(a4) # 80013088 <uart16550>
    80002a08:	00d797bb          	sllw	a5,a5,a3
    80002a0c:	97ba                	add	a5,a5,a4
    80002a0e:	0007c783          	lbu	a5,0(a5)
    80002a12:	8b85                	andi	a5,a5,1
    80002a14:	c781                	beqz	a5,80002a1c <uart16550_getchar+0x26>
    80002a16:	00074503          	lbu	a0,0(a4)
    80002a1a:	8082                	ret
    80002a1c:	557d                	li	a0,-1
    80002a1e:	8082                	ret

0000000080002a20 <query_uart16550>:
    80002a20:	711d                	addi	sp,sp,-96
    80002a22:	00000797          	auipc	a5,0x0
    80002a26:	e7a78793          	addi	a5,a5,-390 # 8000289c <uart16550_open>
    80002a2a:	f43e                	sd	a5,40(sp)
    80002a2c:	00000797          	auipc	a5,0x0
    80002a30:	e9078793          	addi	a5,a5,-368 # 800028bc <uart16550_prop>
    80002a34:	f83e                	sd	a5,48(sp)
    80002a36:	00000797          	auipc	a5,0x0
    80002a3a:	db878793          	addi	a5,a5,-584 # 800027ee <uart16550_done>
    80002a3e:	fc3e                	sd	a5,56(sp)
    80002a40:	102c                	addi	a1,sp,40
    80002a42:	003c                	addi	a5,sp,8
    80002a44:	ec86                	sd	ra,88(sp)
    80002a46:	e082                	sd	zero,64(sp)
    80002a48:	e4be                	sd	a5,72(sp)
    80002a4a:	8d9fe0ef          	jal	ra,80001322 <fdt_scan>
    80002a4e:	60e6                	ld	ra,88(sp)
    80002a50:	6125                	addi	sp,sp,96
    80002a52:	8082                	ret

0000000080002a54 <finisher_done>:
    80002a54:	419c                	lw	a5,0(a1)
    80002a56:	cb89                	beqz	a5,80002a68 <finisher_done+0x14>
    80002a58:	659c                	ld	a5,8(a1)
    80002a5a:	c799                	beqz	a5,80002a68 <finisher_done+0x14>
    80002a5c:	00010717          	auipc	a4,0x10
    80002a60:	63470713          	addi	a4,a4,1588 # 80013090 <finisher>
    80002a64:	6314                	ld	a3,0(a4)
    80002a66:	c291                	beqz	a3,80002a6a <finisher_done+0x16>
    80002a68:	8082                	ret
    80002a6a:	e31c                	sd	a5,0(a4)
    80002a6c:	8082                	ret

0000000080002a6e <finisher_open>:
    80002a6e:	852e                	mv	a0,a1
    80002a70:	4641                	li	a2,16
    80002a72:	4581                	li	a1,0
    80002a74:	1e50306f          	j	80006458 <memset>

0000000080002a78 <finisher_prop>:
    80002a78:	1101                	addi	sp,sp,-32
    80002a7a:	e04a                	sd	s2,0(sp)
    80002a7c:	00853903          	ld	s2,8(a0) # 10008 <MEM_START-0x7ffefff8>
    80002a80:	e822                	sd	s0,16(sp)
    80002a82:	e426                	sd	s1,8(sp)
    80002a84:	842a                	mv	s0,a0
    80002a86:	84ae                	mv	s1,a1
    80002a88:	854a                	mv	a0,s2
    80002a8a:	00004597          	auipc	a1,0x4
    80002a8e:	5c658593          	addi	a1,a1,1478 # 80007050 <softfloat_countLeadingZeros8+0x4d8>
    80002a92:	ec06                	sd	ra,24(sp)
    80002a94:	225030ef          	jal	ra,800064b8 <strcmp>
    80002a98:	e909                	bnez	a0,80002aaa <finisher_prop+0x32>
    80002a9a:	6808                	ld	a0,16(s0)
    80002a9c:	00005597          	auipc	a1,0x5
    80002aa0:	83c58593          	addi	a1,a1,-1988 # 800072d8 <softfloat_countLeadingZeros8+0x760>
    80002aa4:	215030ef          	jal	ra,800064b8 <strcmp>
    80002aa8:	cd19                	beqz	a0,80002ac6 <finisher_prop+0x4e>
    80002aaa:	00004597          	auipc	a1,0x4
    80002aae:	3e658593          	addi	a1,a1,998 # 80006e90 <softfloat_countLeadingZeros8+0x318>
    80002ab2:	854a                	mv	a0,s2
    80002ab4:	205030ef          	jal	ra,800064b8 <strcmp>
    80002ab8:	cd19                	beqz	a0,80002ad6 <finisher_prop+0x5e>
    80002aba:	60e2                	ld	ra,24(sp)
    80002abc:	6442                	ld	s0,16(sp)
    80002abe:	64a2                	ld	s1,8(sp)
    80002ac0:	6902                	ld	s2,0(sp)
    80002ac2:	6105                	addi	sp,sp,32
    80002ac4:	8082                	ret
    80002ac6:	60e2                	ld	ra,24(sp)
    80002ac8:	6442                	ld	s0,16(sp)
    80002aca:	4785                	li	a5,1
    80002acc:	c09c                	sw	a5,0(s1)
    80002ace:	6902                	ld	s2,0(sp)
    80002ad0:	64a2                	ld	s1,8(sp)
    80002ad2:	6105                	addi	sp,sp,32
    80002ad4:	8082                	ret
    80002ad6:	601c                	ld	a5,0(s0)
    80002ad8:	680c                	ld	a1,16(s0)
    80002ada:	6442                	ld	s0,16(sp)
    80002adc:	60e2                	ld	ra,24(sp)
    80002ade:	6902                	ld	s2,0(sp)
    80002ae0:	6388                	ld	a0,0(a5)
    80002ae2:	00848613          	addi	a2,s1,8
    80002ae6:	64a2                	ld	s1,8(sp)
    80002ae8:	6105                	addi	sp,sp,32
    80002aea:	96ffe06f          	j	80001458 <fdt_get_address>

0000000080002aee <finisher_exit>:
    80002aee:	00010797          	auipc	a5,0x10
    80002af2:	5a27b783          	ld	a5,1442(a5) # 80013090 <finisher>
    80002af6:	cf99                	beqz	a5,80002b14 <finisher_exit+0x26>
    80002af8:	e511                	bnez	a0,80002b04 <finisher_exit+0x16>
    80002afa:	6715                	lui	a4,0x5
    80002afc:	55570713          	addi	a4,a4,1365 # 5555 <MEM_START-0x7fffaaab>
    80002b00:	c398                	sw	a4,0(a5)
    80002b02:	8082                	ret
    80002b04:	670d                	lui	a4,0x3
    80002b06:	0105151b          	slliw	a0,a0,0x10
    80002b0a:	33370713          	addi	a4,a4,819 # 3333 <MEM_START-0x7fffcccd>
    80002b0e:	8d59                	or	a0,a0,a4
    80002b10:	2501                	sext.w	a0,a0
    80002b12:	c388                	sw	a0,0(a5)
    80002b14:	8082                	ret

0000000080002b16 <query_finisher>:
    80002b16:	715d                	addi	sp,sp,-80
    80002b18:	00000797          	auipc	a5,0x0
    80002b1c:	f5678793          	addi	a5,a5,-170 # 80002a6e <finisher_open>
    80002b20:	ec3e                	sd	a5,24(sp)
    80002b22:	00000797          	auipc	a5,0x0
    80002b26:	f5678793          	addi	a5,a5,-170 # 80002a78 <finisher_prop>
    80002b2a:	f03e                	sd	a5,32(sp)
    80002b2c:	00000797          	auipc	a5,0x0
    80002b30:	f2878793          	addi	a5,a5,-216 # 80002a54 <finisher_done>
    80002b34:	f43e                	sd	a5,40(sp)
    80002b36:	082c                	addi	a1,sp,24
    80002b38:	003c                	addi	a5,sp,8
    80002b3a:	e486                	sd	ra,72(sp)
    80002b3c:	f802                	sd	zero,48(sp)
    80002b3e:	fc3e                	sd	a5,56(sp)
    80002b40:	fe2fe0ef          	jal	ra,80001322 <fdt_scan>
    80002b44:	60a6                	ld	ra,72(sp)
    80002b46:	6161                	addi	sp,sp,80
    80002b48:	8082                	ret

0000000080002b4a <truly_illegal_insn.constprop.0>:
    80002b4a:	976ff06f          	j	80001cc0 <redirect_trap>

0000000080002b4e <illegal_insn_trap>:
    80002b4e:	8e2e                	mv	t3,a1
    80002b50:	87b2                	mv	a5,a2
    80002b52:	300028f3          	csrr	a7,mstatus
    80002b56:	34302773          	csrr	a4,mtval
    80002b5a:	480d                	li	a6,3
    80002b5c:	00377313          	andi	t1,a4,3
    80002b60:	03031463          	bne	t1,a6,80002b88 <illegal_insn_trap+0x3a>
    80002b64:	00478693          	addi	a3,a5,4
    80002b68:	34169073          	csrw	mepc,a3
    80002b6c:	00004817          	auipc	a6,0x4
    80002b70:	e6c80813          	addi	a6,a6,-404 # 800069d8 <illegal_insn_trap_table>
    80002b74:	07c77613          	andi	a2,a4,124
    80002b78:	9642                	add	a2,a2,a6
    80002b7a:	00062303          	lw	t1,0(a2)
    80002b7e:	86c6                	mv	a3,a7
    80002b80:	863e                	mv	a2,a5
    80002b82:	9342                	add	t1,t1,a6
    80002b84:	85f2                	mv	a1,t3
    80002b86:	8302                	jr	t1
    80002b88:	cb25                	beqz	a4,80002bf8 <illegal_insn_trap+0xaa>
    80002b8a:	00278613          	addi	a2,a5,2
    80002b8e:	34161073          	csrw	mepc,a2
    80002b92:	6619                	lui	a2,0x6
    80002b94:	00c8f633          	and	a2,a7,a2
    80002b98:	c25d                	beqz	a2,80002c3e <illegal_insn_trap+0xf0>
    80002b9a:	6639                	lui	a2,0xe
    80002b9c:	060d                	addi	a2,a2,3
    80002b9e:	8e79                	and	a2,a2,a4
    80002ba0:	6589                	lui	a1,0x2
    80002ba2:	0ab60263          	beq	a2,a1,80002c46 <illegal_insn_trap+0xf8>
    80002ba6:	0589                	addi	a1,a1,2
    80002ba8:	0eb60863          	beq	a2,a1,80002c98 <illegal_insn_trap+0x14a>
    80002bac:	65a9                	lui	a1,0xa
    80002bae:	10b60f63          	beq	a2,a1,80002ccc <illegal_insn_trap+0x17e>
    80002bb2:	0589                	addi	a1,a1,2
    80002bb4:	08b61563          	bne	a2,a1,80002c3e <illegal_insn_trap+0xf0>
    80002bb8:	690c                	ld	a1,16(a0)
    80002bba:	00775813          	srli	a6,a4,0x7
    80002bbe:	00175613          	srli	a2,a4,0x1
    80002bc2:	1c067613          	andi	a2,a2,448
    80002bc6:	03887813          	andi	a6,a6,56
    80002bca:	00c86833          	or	a6,a6,a2
    80002bce:	0075f613          	andi	a2,a1,7
    80002bd2:	982e                	add	a6,a6,a1
    80002bd4:	12061a63          	bnez	a2,80002d08 <illegal_insn_trap+0x1ba>
    80002bd8:	0706                	slli	a4,a4,0x1
    80002bda:	0f877713          	andi	a4,a4,248
    80002bde:	953a                	add	a0,a0,a4
    80002be0:	10053703          	ld	a4,256(a0)
    80002be4:	000205b7          	lui	a1,0x20
    80002be8:	863e                	mv	a2,a5
    80002bea:	3005a6f3          	csrrs	a3,mstatus,a1
    80002bee:	00e83023          	sd	a4,0(a6)
    80002bf2:	30069073          	csrw	mstatus,a3
    80002bf6:	8082                	ret
    80002bf8:	000a05b7          	lui	a1,0xa0
    80002bfc:	3005a6f3          	csrrs	a3,mstatus,a1
    80002c00:	00267893          	andi	a7,a2,2
    80002c04:	00089b63          	bnez	a7,80002c1a <illegal_insn_trap+0xcc>
    80002c08:	00066703          	lwu	a4,0(a2) # e000 <MEM_START-0x7fff2000>
    80002c0c:	010778b3          	and	a7,a4,a6
    80002c10:	01088f63          	beq	a7,a6,80002c2e <illegal_insn_trap+0xe0>
    80002c14:	1742                	slli	a4,a4,0x30
    80002c16:	9341                	srli	a4,a4,0x30
    80002c18:	a819                	j	80002c2e <illegal_insn_trap+0xe0>
    80002c1a:	00065703          	lhu	a4,0(a2)
    80002c1e:	010778b3          	and	a7,a4,a6
    80002c22:	01089663          	bne	a7,a6,80002c2e <illegal_insn_trap+0xe0>
    80002c26:	00265883          	lhu	a7,2(a2)
    80002c2a:	08c2                	slli	a7,a7,0x10
    80002c2c:	9746                	add	a4,a4,a7
    80002c2e:	30069073          	csrw	mstatus,a3
    80002c32:	00377613          	andi	a2,a4,3
    80002c36:	88b6                	mv	a7,a3
    80002c38:	f30606e3          	beq	a2,a6,80002b64 <illegal_insn_trap+0x16>
    80002c3c:	b7b9                	j	80002b8a <illegal_insn_trap+0x3c>
    80002c3e:	863a                	mv	a2,a4
    80002c40:	85c6                	mv	a1,a7
    80002c42:	853e                	mv	a0,a5
    80002c44:	b719                	j	80002b4a <truly_illegal_insn.constprop.0>
    80002c46:	00775613          	srli	a2,a4,0x7
    80002c4a:	8a1d                	andi	a2,a2,7
    80002c4c:	0621                	addi	a2,a2,8
    80002c4e:	060e                	slli	a2,a2,0x3
    80002c50:	962a                	add	a2,a2,a0
    80002c52:	620c                	ld	a1,0(a2)
    80002c54:	00775813          	srli	a6,a4,0x7
    80002c58:	00171613          	slli	a2,a4,0x1
    80002c5c:	0c067613          	andi	a2,a2,192
    80002c60:	03887813          	andi	a6,a6,56
    80002c64:	00c86833          	or	a6,a6,a2
    80002c68:	0075f613          	andi	a2,a1,7
    80002c6c:	982e                	add	a6,a6,a1
    80002c6e:	ea49                	bnez	a2,80002d00 <illegal_insn_trap+0x1b2>
    80002c70:	8309                	srli	a4,a4,0x2
    80002c72:	8b1d                	andi	a4,a4,7
    80002c74:	0721                	addi	a4,a4,8
    80002c76:	070e                	slli	a4,a4,0x3
    80002c78:	953a                	add	a0,a0,a4
    80002c7a:	000205b7          	lui	a1,0x20
    80002c7e:	863e                	mv	a2,a5
    80002c80:	3005a6f3          	csrrs	a3,mstatus,a1
    80002c84:	00083783          	ld	a5,0(a6)
    80002c88:	30069073          	csrw	mstatus,a3
    80002c8c:	10f53023          	sd	a5,256(a0)
    80002c90:	6799                	lui	a5,0x6
    80002c92:	3007a7f3          	csrrs	a5,mstatus,a5
    80002c96:	8082                	ret
    80002c98:	01053883          	ld	a7,16(a0)
    80002c9c:	00275813          	srli	a6,a4,0x2
    80002ca0:	00775593          	srli	a1,a4,0x7
    80002ca4:	01887813          	andi	a6,a6,24
    80002ca8:	0205f593          	andi	a1,a1,32
    80002cac:	00471613          	slli	a2,a4,0x4
    80002cb0:	1c067613          	andi	a2,a2,448
    80002cb4:	00b86833          	or	a6,a6,a1
    80002cb8:	00c86833          	or	a6,a6,a2
    80002cbc:	0078f613          	andi	a2,a7,7
    80002cc0:	9846                	add	a6,a6,a7
    80002cc2:	ee1d                	bnez	a2,80002d00 <illegal_insn_trap+0x1b2>
    80002cc4:	8311                	srli	a4,a4,0x4
    80002cc6:	0f877713          	andi	a4,a4,248
    80002cca:	b77d                	j	80002c78 <illegal_insn_trap+0x12a>
    80002ccc:	00775613          	srli	a2,a4,0x7
    80002cd0:	8a1d                	andi	a2,a2,7
    80002cd2:	0621                	addi	a2,a2,8
    80002cd4:	060e                	slli	a2,a2,0x3
    80002cd6:	962a                	add	a2,a2,a0
    80002cd8:	620c                	ld	a1,0(a2)
    80002cda:	00775813          	srli	a6,a4,0x7
    80002cde:	00171613          	slli	a2,a4,0x1
    80002ce2:	0c067613          	andi	a2,a2,192
    80002ce6:	03887813          	andi	a6,a6,56
    80002cea:	00c86833          	or	a6,a6,a2
    80002cee:	0075f613          	andi	a2,a1,7
    80002cf2:	982e                	add	a6,a6,a1
    80002cf4:	ea11                	bnez	a2,80002d08 <illegal_insn_trap+0x1ba>
    80002cf6:	8309                	srli	a4,a4,0x2
    80002cf8:	8b1d                	andi	a4,a4,7
    80002cfa:	0721                	addi	a4,a4,8
    80002cfc:	070e                	slli	a4,a4,0x3
    80002cfe:	b5c5                	j	80002bde <illegal_insn_trap+0x90>
    80002d00:	863e                	mv	a2,a5
    80002d02:	85f2                	mv	a1,t3
    80002d04:	6150006f          	j	80003b18 <misaligned_load_trap>
    80002d08:	863e                	mv	a2,a5
    80002d0a:	85f2                	mv	a1,t3
    80002d0c:	7e30006f          	j	80003cee <misaligned_store_trap>

0000000080002d10 <truly_illegal_insn>:
    80002d10:	8532                	mv	a0,a2
    80002d12:	85b6                	mv	a1,a3
    80002d14:	863a                	mv	a2,a4
    80002d16:	fabfe06f          	j	80001cc0 <redirect_trap>

0000000080002d1a <emulate_system_opcode>:
    80002d1a:	6889                	lui	a7,0x2
    80002d1c:	85b6                	mv	a1,a3
    80002d1e:	00c75813          	srli	a6,a4,0xc
    80002d22:	80088893          	addi	a7,a7,-2048 # 1800 <MEM_START-0x7fffe800>
    80002d26:	86aa                	mv	a3,a0
    80002d28:	00f75e13          	srli	t3,a4,0xf
    80002d2c:	0f887793          	andi	a5,a6,248
    80002d30:	0115f8b3          	and	a7,a1,a7
    80002d34:	7ff00313          	li	t1,2047
    80002d38:	01fe7e93          	andi	t4,t3,31
    80002d3c:	8532                	mv	a0,a2
    80002d3e:	00f68e33          	add	t3,a3,a5
    80002d42:	0147579b          	srliw	a5,a4,0x14
    80002d46:	0b136663          	bltu	t1,a7,80002df2 <emulate_system_opcode+0xd8>
    80002d4a:	10602373          	csrr	t1,scounteren
    80002d4e:	6885                	lui	a7,0x1
    80002d50:	b0388613          	addi	a2,a7,-1277 # b03 <MEM_START-0x7ffff4fd>
    80002d54:	1cc78263          	beq	a5,a2,80002f18 <emulate_system_opcode+0x1fe>
    80002d58:	02f66f63          	bltu	a2,a5,80002d96 <emulate_system_opcode+0x7c>
    80002d5c:	460d                	li	a2,3
    80002d5e:	1cc78463          	beq	a5,a2,80002f26 <emulate_system_opcode+0x20c>
    80002d62:	06f67a63          	bgeu	a2,a5,80002dd6 <emulate_system_opcode+0xbc>
    80002d66:	32300613          	li	a2,803
    80002d6a:	1cc78c63          	beq	a5,a2,80002f42 <emulate_system_opcode+0x228>
    80002d6e:	32400613          	li	a2,804
    80002d72:	0ac79163          	bne	a5,a2,80002e14 <emulate_system_opcode+0xfa>
    80002d76:	32402f73          	csrr	t5,mhpmevent4
    80002d7a:	00787813          	andi	a6,a6,7
    80002d7e:	00004317          	auipc	t1,0x4
    80002d82:	cda30313          	addi	t1,t1,-806 # 80006a58 <illegal_insn_trap_table+0x80>
    80002d86:	080a                	slli	a6,a6,0x2
    80002d88:	981a                	add	a6,a6,t1
    80002d8a:	00082603          	lw	a2,0(a6)
    80002d8e:	000e3883          	ld	a7,0(t3)
    80002d92:	961a                	add	a2,a2,t1
    80002d94:	8602                	jr	a2
    80002d96:	c0188613          	addi	a2,a7,-1023
    80002d9a:	16c78463          	beq	a5,a2,80002f02 <emulate_system_opcode+0x1e8>
    80002d9e:	00f67d63          	bgeu	a2,a5,80002db8 <emulate_system_opcode+0x9e>
    80002da2:	c0288893          	addi	a7,a7,-1022
    80002da6:	07179763          	bne	a5,a7,80002e14 <emulate_system_opcode+0xfa>
    80002daa:	00437313          	andi	t1,t1,4
    80002dae:	06030363          	beqz	t1,80002e14 <emulate_system_opcode+0xfa>
    80002db2:	b0202f73          	csrr	t5,minstret
    80002db6:	b7d1                	j	80002d7a <emulate_system_opcode+0x60>
    80002db8:	b0488613          	addi	a2,a7,-1276
    80002dbc:	0ec78e63          	beq	a5,a2,80002eb8 <emulate_system_opcode+0x19e>
    80002dc0:	c0088893          	addi	a7,a7,-1024
    80002dc4:	05179863          	bne	a5,a7,80002e14 <emulate_system_opcode+0xfa>
    80002dc8:	00137313          	andi	t1,t1,1
    80002dcc:	04030463          	beqz	t1,80002e14 <emulate_system_opcode+0xfa>
    80002dd0:	b0002f73          	csrr	t5,mcycle
    80002dd4:	b75d                	j	80002d7a <emulate_system_opcode+0x60>
    80002dd6:	4605                	li	a2,1
    80002dd8:	14c78e63          	beq	a5,a2,80002f34 <emulate_system_opcode+0x21a>
    80002ddc:	4609                	li	a2,2
    80002dde:	02c79b63          	bne	a5,a2,80002e14 <emulate_system_opcode+0xfa>
    80002de2:	6619                	lui	a2,0x6
    80002de4:	8e6d                	and	a2,a2,a1
    80002de6:	c61d                	beqz	a2,80002e14 <emulate_system_opcode+0xfa>
    80002de8:	40525f1b          	sraiw	t5,tp,0x5
    80002dec:	007f7f13          	andi	t5,t5,7
    80002df0:	b769                	j	80002d7a <emulate_system_opcode+0x60>
    80002df2:	6885                	lui	a7,0x1
    80002df4:	b0388613          	addi	a2,a7,-1277 # b03 <MEM_START-0x7ffff4fd>
    80002df8:	12c78463          	beq	a5,a2,80002f20 <emulate_system_opcode+0x206>
    80002dfc:	f6f670e3          	bgeu	a2,a5,80002d5c <emulate_system_opcode+0x42>
    80002e00:	c0188613          	addi	a2,a7,-1023
    80002e04:	10c78363          	beq	a5,a2,80002f0a <emulate_system_opcode+0x1f0>
    80002e08:	00f67863          	bgeu	a2,a5,80002e18 <emulate_system_opcode+0xfe>
    80002e0c:	c0288893          	addi	a7,a7,-1022
    80002e10:	fb1781e3          	beq	a5,a7,80002db2 <emulate_system_opcode+0x98>
    80002e14:	863a                	mv	a2,a4
    80002e16:	bb15                	j	80002b4a <truly_illegal_insn.constprop.0>
    80002e18:	b0488613          	addi	a2,a7,-1276
    80002e1c:	0ac78263          	beq	a5,a2,80002ec0 <emulate_system_opcode+0x1a6>
    80002e20:	c0088893          	addi	a7,a7,-1024
    80002e24:	ff1798e3          	bne	a5,a7,80002e14 <emulate_system_opcode+0xfa>
    80002e28:	b0002f73          	csrr	t5,mcycle
    80002e2c:	b7b9                	j	80002d7a <emulate_system_opcode+0x60>
    80002e2e:	88f6                	mv	a7,t4
    80002e30:	32400613          	li	a2,804
    80002e34:	12c78663          	beq	a5,a2,80002f60 <emulate_system_opcode+0x246>
    80002e38:	02f67663          	bgeu	a2,a5,80002e64 <emulate_system_opcode+0x14a>
    80002e3c:	6805                	lui	a6,0x1
    80002e3e:	c0080613          	addi	a2,a6,-1024 # c00 <MEM_START-0x7ffff400>
    80002e42:	12c78263          	beq	a5,a2,80002f66 <emulate_system_opcode+0x24c>
    80002e46:	02f67b63          	bgeu	a2,a5,80002e7c <emulate_system_opcode+0x162>
    80002e4a:	c0280813          	addi	a6,a6,-1022
    80002e4e:	fd0793e3          	bne	a5,a6,80002e14 <emulate_system_opcode+0xfa>
    80002e52:	b0289073          	csrw	minstret,a7
    80002e56:	8311                	srli	a4,a4,0x4
    80002e58:	0f877713          	andi	a4,a4,248
    80002e5c:	96ba                	add	a3,a3,a4
    80002e5e:	01e6b023          	sd	t5,0(a3)
    80002e62:	8082                	ret
    80002e64:	460d                	li	a2,3
    80002e66:	10c78663          	beq	a5,a2,80002f72 <emulate_system_opcode+0x258>
    80002e6a:	02f67463          	bgeu	a2,a5,80002e92 <emulate_system_opcode+0x178>
    80002e6e:	32300613          	li	a2,803
    80002e72:	fac791e3          	bne	a5,a2,80002e14 <emulate_system_opcode+0xfa>
    80002e76:	32389073          	csrw	mhpmevent3,a7
    80002e7a:	bff1                	j	80002e56 <emulate_system_opcode+0x13c>
    80002e7c:	b0380613          	addi	a2,a6,-1277
    80002e80:	0ec78663          	beq	a5,a2,80002f6c <emulate_system_opcode+0x252>
    80002e84:	b0480813          	addi	a6,a6,-1276
    80002e88:	f90796e3          	bne	a5,a6,80002e14 <emulate_system_opcode+0xfa>
    80002e8c:	b0489073          	csrw	mhpmcounter4,a7
    80002e90:	b7d9                	j	80002e56 <emulate_system_opcode+0x13c>
    80002e92:	4605                	li	a2,1
    80002e94:	0ac78a63          	beq	a5,a2,80002f48 <emulate_system_opcode+0x22e>
    80002e98:	4609                	li	a2,2
    80002e9a:	f6c79de3          	bne	a5,a2,80002e14 <emulate_system_opcode+0xfa>
    80002e9e:	01f27793          	andi	a5,tp,31
    80002ea2:	0896                	slli	a7,a7,0x5
    80002ea4:	0117e8b3          	or	a7,a5,a7
    80002ea8:	0ff8f893          	andi	a7,a7,255
    80002eac:	01100233          	add	tp,zero,a7
    80002eb0:	6799                	lui	a5,0x6
    80002eb2:	3007a7f3          	csrrs	a5,mstatus,a5
    80002eb6:	b745                	j	80002e56 <emulate_system_opcode+0x13c>
    80002eb8:	01037313          	andi	t1,t1,16
    80002ebc:	f4030ce3          	beqz	t1,80002e14 <emulate_system_opcode+0xfa>
    80002ec0:	b0402f73          	csrr	t5,mhpmcounter4
    80002ec4:	bd5d                	j	80002d7a <emulate_system_opcode+0x60>
    80002ec6:	01e8e8b3          	or	a7,a7,t5
    80002eca:	f60e93e3          	bnez	t4,80002e30 <emulate_system_opcode+0x116>
    80002ece:	8311                	srli	a4,a4,0x4
    80002ed0:	0f877713          	andi	a4,a4,248
    80002ed4:	96ba                	add	a3,a3,a4
    80002ed6:	01e6b023          	sd	t5,0(a3)
    80002eda:	8082                	ret
    80002edc:	fff8c893          	not	a7,a7
    80002ee0:	01e8f8b3          	and	a7,a7,t5
    80002ee4:	fe0e85e3          	beqz	t4,80002ece <emulate_system_opcode+0x1b4>
    80002ee8:	b7a1                	j	80002e30 <emulate_system_opcode+0x116>
    80002eea:	01eee8b3          	or	a7,t4,t5
    80002eee:	fe0e80e3          	beqz	t4,80002ece <emulate_system_opcode+0x1b4>
    80002ef2:	bf3d                	j	80002e30 <emulate_system_opcode+0x116>
    80002ef4:	fffec893          	not	a7,t4
    80002ef8:	01e8f8b3          	and	a7,a7,t5
    80002efc:	fc0e89e3          	beqz	t4,80002ece <emulate_system_opcode+0x1b4>
    80002f00:	bf05                	j	80002e30 <emulate_system_opcode+0x116>
    80002f02:	00237313          	andi	t1,t1,2
    80002f06:	f00307e3          	beqz	t1,80002e14 <emulate_system_opcode+0xfa>
    80002f0a:	00010617          	auipc	a2,0x10
    80002f0e:	14663603          	ld	a2,326(a2) # 80013050 <mtime>
    80002f12:	00063f03          	ld	t5,0(a2)
    80002f16:	b595                	j	80002d7a <emulate_system_opcode+0x60>
    80002f18:	00837313          	andi	t1,t1,8
    80002f1c:	ee030ce3          	beqz	t1,80002e14 <emulate_system_opcode+0xfa>
    80002f20:	b0302f73          	csrr	t5,mhpmcounter3
    80002f24:	bd99                	j	80002d7a <emulate_system_opcode+0x60>
    80002f26:	6619                	lui	a2,0x6
    80002f28:	8e6d                	and	a2,a2,a1
    80002f2a:	ee0605e3          	beqz	a2,80002e14 <emulate_system_opcode+0xfa>
    80002f2e:	0ff27f13          	andi	t5,tp,255
    80002f32:	b5a1                	j	80002d7a <emulate_system_opcode+0x60>
    80002f34:	6619                	lui	a2,0x6
    80002f36:	8e6d                	and	a2,a2,a1
    80002f38:	ec060ee3          	beqz	a2,80002e14 <emulate_system_opcode+0xfa>
    80002f3c:	01f27f13          	andi	t5,tp,31
    80002f40:	bd2d                	j	80002d7a <emulate_system_opcode+0x60>
    80002f42:	32302f73          	csrr	t5,mhpmevent3
    80002f46:	bd15                	j	80002d7a <emulate_system_opcode+0x60>
    80002f48:	0e027793          	andi	a5,tp,224
    80002f4c:	01f8f893          	andi	a7,a7,31
    80002f50:	0117e8b3          	or	a7,a5,a7
    80002f54:	01100233          	add	tp,zero,a7
    80002f58:	6799                	lui	a5,0x6
    80002f5a:	3007a7f3          	csrrs	a5,mstatus,a5
    80002f5e:	bde5                	j	80002e56 <emulate_system_opcode+0x13c>
    80002f60:	32489073          	csrw	mhpmevent4,a7
    80002f64:	bdcd                	j	80002e56 <emulate_system_opcode+0x13c>
    80002f66:	b0089073          	csrw	mcycle,a7
    80002f6a:	b5f5                	j	80002e56 <emulate_system_opcode+0x13c>
    80002f6c:	b0389073          	csrw	mhpmcounter3,a7
    80002f70:	b5dd                	j	80002e56 <emulate_system_opcode+0x13c>
    80002f72:	0ff8f893          	andi	a7,a7,255
    80002f76:	01100233          	add	tp,zero,a7
    80002f7a:	6799                	lui	a5,0x6
    80002f7c:	3007a7f3          	csrrs	a5,mstatus,a5
    80002f80:	bdd9                	j	80002e56 <emulate_system_opcode+0x13c>

0000000080002f82 <emulate_fp>:
    80002f82:	6799                	lui	a5,0x6
    80002f84:	8ff5                	and	a5,a5,a3
    80002f86:	cb85                	beqz	a5,80002fb6 <emulate_fp+0x34>
    80002f88:	01975793          	srli	a5,a4,0x19
    80002f8c:	00004317          	auipc	t1,0x4
    80002f90:	aec30313          	addi	t1,t1,-1300 # 80006a78 <fp_emulation_table>
    80002f94:	07c7f793          	andi	a5,a5,124
    80002f98:	979a                	add	a5,a5,t1
    80002f9a:	439c                	lw	a5,0(a5)
    80002f9c:	681d                	lui	a6,0x7
    80002f9e:	010778b3          	and	a7,a4,a6
    80002fa2:	933e                	add	t1,t1,a5
    80002fa4:	0ff27793          	andi	a5,tp,255
    80002fa8:	01089863          	bne	a7,a6,80002fb8 <emulate_fp+0x36>
    80002fac:	0087981b          	slliw	a6,a5,0x8
    80002fb0:	0107e233          	or	tp,a5,a6
    80002fb4:	8302                	jr	t1
    80002fb6:	bba9                	j	80002d10 <truly_illegal_insn>
    80002fb8:	00c75813          	srli	a6,a4,0xc
    80002fbc:	00787e13          	andi	t3,a6,7
    80002fc0:	4891                	li	a7,4
    80002fc2:	ffc8eae3          	bltu	a7,t3,80002fb6 <emulate_fp+0x34>
    80002fc6:	00d8181b          	slliw	a6,a6,0xd
    80002fca:	68b9                	lui	a7,0xe
    80002fcc:	01187833          	and	a6,a6,a7
    80002fd0:	00f86233          	or	tp,a6,a5
    80002fd4:	b7c5                	j	80002fb4 <emulate_fp+0x32>

0000000080002fd6 <emulate_any_fadd>:
    80002fd6:	1101                	addi	sp,sp,-32
    80002fd8:	01975813          	srli	a6,a4,0x19
    80002fdc:	e822                	sd	s0,16(sp)
    80002fde:	e426                	sd	s1,8(sp)
    80002fe0:	ec06                	sd	ra,24(sp)
    80002fe2:	00387813          	andi	a6,a6,3
    80002fe6:	843a                	mv	s0,a4
    80002fe8:	84aa                	mv	s1,a0
    80002fea:	04080963          	beqz	a6,8000303c <emulate_any_fadd+0x66>
    80002fee:	4885                	li	a7,1
    80002ff0:	05181163          	bne	a6,a7,80003032 <emulate_any_fadd+0x5c>
    80002ff4:	01175693          	srli	a3,a4,0x11
    80002ff8:	0f86f693          	andi	a3,a3,248
    80002ffc:	8331                	srli	a4,a4,0xc
    80002ffe:	96aa                	add	a3,a3,a0
    80003000:	0f877713          	andi	a4,a4,248
    80003004:	1006b583          	ld	a1,256(a3)
    80003008:	972a                	add	a4,a4,a0
    8000300a:	10073503          	ld	a0,256(a4)
    8000300e:	1782                	slli	a5,a5,0x20
    80003010:	8011                	srli	s0,s0,0x4
    80003012:	8dbd                	xor	a1,a1,a5
    80003014:	0f847413          	andi	s0,s0,248
    80003018:	4fc010ef          	jal	ra,80004514 <f64_add>
    8000301c:	9426                	add	s0,s0,s1
    8000301e:	10a43023          	sd	a0,256(s0)
    80003022:	6799                	lui	a5,0x6
    80003024:	3007a7f3          	csrrs	a5,mstatus,a5
    80003028:	60e2                	ld	ra,24(sp)
    8000302a:	6442                	ld	s0,16(sp)
    8000302c:	64a2                	ld	s1,8(sp)
    8000302e:	6105                	addi	sp,sp,32
    80003030:	8082                	ret
    80003032:	6442                	ld	s0,16(sp)
    80003034:	60e2                	ld	ra,24(sp)
    80003036:	64a2                	ld	s1,8(sp)
    80003038:	6105                	addi	sp,sp,32
    8000303a:	b9d9                	j	80002d10 <truly_illegal_insn>
    8000303c:	01175693          	srli	a3,a4,0x11
    80003040:	0f86f693          	andi	a3,a3,248
    80003044:	8331                	srli	a4,a4,0xc
    80003046:	96aa                	add	a3,a3,a0
    80003048:	0f877713          	andi	a4,a4,248
    8000304c:	1006a583          	lw	a1,256(a3)
    80003050:	972a                	add	a4,a4,a0
    80003052:	10072503          	lw	a0,256(a4)
    80003056:	8dbd                	xor	a1,a1,a5
    80003058:	647000ef          	jal	ra,80003e9e <f32_add>
    8000305c:	00445713          	srli	a4,s0,0x4
    80003060:	0f877713          	andi	a4,a4,248
    80003064:	00e48433          	add	s0,s1,a4
    80003068:	10a42023          	sw	a0,256(s0)
    8000306c:	6799                	lui	a5,0x6
    8000306e:	3007a7f3          	csrrs	a5,mstatus,a5
    80003072:	60e2                	ld	ra,24(sp)
    80003074:	6442                	ld	s0,16(sp)
    80003076:	64a2                	ld	s1,8(sp)
    80003078:	6105                	addi	sp,sp,32
    8000307a:	8082                	ret

000000008000307c <emulate_fadd>:
    8000307c:	4781                	li	a5,0
    8000307e:	bfa1                	j	80002fd6 <emulate_any_fadd>

0000000080003080 <emulate_fsub>:
    80003080:	800007b7          	lui	a5,0x80000
    80003084:	bf89                	j	80002fd6 <emulate_any_fadd>

0000000080003086 <emulate_fmul>:
    80003086:	1101                	addi	sp,sp,-32
    80003088:	01975793          	srli	a5,a4,0x19
    8000308c:	e822                	sd	s0,16(sp)
    8000308e:	e426                	sd	s1,8(sp)
    80003090:	ec06                	sd	ra,24(sp)
    80003092:	8b8d                	andi	a5,a5,3
    80003094:	843a                	mv	s0,a4
    80003096:	84aa                	mv	s1,a0
    80003098:	c7b1                	beqz	a5,800030e4 <emulate_fmul+0x5e>
    8000309a:	4805                	li	a6,1
    8000309c:	03079f63          	bne	a5,a6,800030da <emulate_fmul+0x54>
    800030a0:	00c45793          	srli	a5,s0,0xc
    800030a4:	8345                	srli	a4,a4,0x11
    800030a6:	0f877713          	andi	a4,a4,248
    800030aa:	0f87f793          	andi	a5,a5,248
    800030ae:	972a                	add	a4,a4,a0
    800030b0:	97aa                	add	a5,a5,a0
    800030b2:	10073583          	ld	a1,256(a4)
    800030b6:	1007b503          	ld	a0,256(a5) # ffffffff80000100 <_payload_end+0xfffffffeffc2835c>
    800030ba:	8011                	srli	s0,s0,0x4
    800030bc:	0f847413          	andi	s0,s0,248
    800030c0:	78a010ef          	jal	ra,8000484a <f64_mul>
    800030c4:	9426                	add	s0,s0,s1
    800030c6:	10a43023          	sd	a0,256(s0)
    800030ca:	6799                	lui	a5,0x6
    800030cc:	3007a7f3          	csrrs	a5,mstatus,a5
    800030d0:	60e2                	ld	ra,24(sp)
    800030d2:	6442                	ld	s0,16(sp)
    800030d4:	64a2                	ld	s1,8(sp)
    800030d6:	6105                	addi	sp,sp,32
    800030d8:	8082                	ret
    800030da:	6442                	ld	s0,16(sp)
    800030dc:	60e2                	ld	ra,24(sp)
    800030de:	64a2                	ld	s1,8(sp)
    800030e0:	6105                	addi	sp,sp,32
    800030e2:	b13d                	j	80002d10 <truly_illegal_insn>
    800030e4:	00c45793          	srli	a5,s0,0xc
    800030e8:	8345                	srli	a4,a4,0x11
    800030ea:	0f877713          	andi	a4,a4,248
    800030ee:	0f87f793          	andi	a5,a5,248
    800030f2:	972a                	add	a4,a4,a0
    800030f4:	97aa                	add	a5,a5,a0
    800030f6:	10072583          	lw	a1,256(a4)
    800030fa:	1007a503          	lw	a0,256(a5) # 6100 <MEM_START-0x7fff9f00>
    800030fe:	0a0010ef          	jal	ra,8000419e <f32_mul>
    80003102:	00445713          	srli	a4,s0,0x4
    80003106:	0f877713          	andi	a4,a4,248
    8000310a:	9726                	add	a4,a4,s1
    8000310c:	10a72023          	sw	a0,256(a4)
    80003110:	6799                	lui	a5,0x6
    80003112:	3007a7f3          	csrrs	a5,mstatus,a5
    80003116:	60e2                	ld	ra,24(sp)
    80003118:	6442                	ld	s0,16(sp)
    8000311a:	64a2                	ld	s1,8(sp)
    8000311c:	6105                	addi	sp,sp,32
    8000311e:	8082                	ret

0000000080003120 <emulate_fdiv>:
    80003120:	1101                	addi	sp,sp,-32
    80003122:	01975793          	srli	a5,a4,0x19
    80003126:	e822                	sd	s0,16(sp)
    80003128:	e426                	sd	s1,8(sp)
    8000312a:	ec06                	sd	ra,24(sp)
    8000312c:	8b8d                	andi	a5,a5,3
    8000312e:	843a                	mv	s0,a4
    80003130:	84aa                	mv	s1,a0
    80003132:	c7b1                	beqz	a5,8000317e <emulate_fdiv+0x5e>
    80003134:	4805                	li	a6,1
    80003136:	03079f63          	bne	a5,a6,80003174 <emulate_fdiv+0x54>
    8000313a:	00c45793          	srli	a5,s0,0xc
    8000313e:	8345                	srli	a4,a4,0x11
    80003140:	0f877713          	andi	a4,a4,248
    80003144:	0f87f793          	andi	a5,a5,248
    80003148:	972a                	add	a4,a4,a0
    8000314a:	97aa                	add	a5,a5,a0
    8000314c:	10073583          	ld	a1,256(a4)
    80003150:	1007b503          	ld	a0,256(a5) # 6100 <MEM_START-0x7fff9f00>
    80003154:	8011                	srli	s0,s0,0x4
    80003156:	0f847413          	andi	s0,s0,248
    8000315a:	3d8010ef          	jal	ra,80004532 <f64_div>
    8000315e:	9426                	add	s0,s0,s1
    80003160:	10a43023          	sd	a0,256(s0)
    80003164:	6799                	lui	a5,0x6
    80003166:	3007a7f3          	csrrs	a5,mstatus,a5
    8000316a:	60e2                	ld	ra,24(sp)
    8000316c:	6442                	ld	s0,16(sp)
    8000316e:	64a2                	ld	s1,8(sp)
    80003170:	6105                	addi	sp,sp,32
    80003172:	8082                	ret
    80003174:	6442                	ld	s0,16(sp)
    80003176:	60e2                	ld	ra,24(sp)
    80003178:	64a2                	ld	s1,8(sp)
    8000317a:	6105                	addi	sp,sp,32
    8000317c:	be51                	j	80002d10 <truly_illegal_insn>
    8000317e:	00c45793          	srli	a5,s0,0xc
    80003182:	8345                	srli	a4,a4,0x11
    80003184:	0f877713          	andi	a4,a4,248
    80003188:	0f87f793          	andi	a5,a5,248
    8000318c:	972a                	add	a4,a4,a0
    8000318e:	97aa                	add	a5,a5,a0
    80003190:	10072583          	lw	a1,256(a4)
    80003194:	1007a503          	lw	a0,256(a5) # 6100 <MEM_START-0x7fff9f00>
    80003198:	529000ef          	jal	ra,80003ec0 <f32_div>
    8000319c:	00445713          	srli	a4,s0,0x4
    800031a0:	0f877713          	andi	a4,a4,248
    800031a4:	9726                	add	a4,a4,s1
    800031a6:	10a72023          	sw	a0,256(a4)
    800031aa:	6799                	lui	a5,0x6
    800031ac:	3007a7f3          	csrrs	a5,mstatus,a5
    800031b0:	60e2                	ld	ra,24(sp)
    800031b2:	6442                	ld	s0,16(sp)
    800031b4:	64a2                	ld	s1,8(sp)
    800031b6:	6105                	addi	sp,sp,32
    800031b8:	8082                	ret

00000000800031ba <emulate_fsqrt>:
    800031ba:	1101                	addi	sp,sp,-32
    800031bc:	01475793          	srli	a5,a4,0x14
    800031c0:	e822                	sd	s0,16(sp)
    800031c2:	e426                	sd	s1,8(sp)
    800031c4:	ec06                	sd	ra,24(sp)
    800031c6:	8bfd                	andi	a5,a5,31
    800031c8:	843a                	mv	s0,a4
    800031ca:	84aa                	mv	s1,a0
    800031cc:	ef9d                	bnez	a5,8000320a <emulate_fsqrt+0x50>
    800031ce:	01975793          	srli	a5,a4,0x19
    800031d2:	8b8d                	andi	a5,a5,3
    800031d4:	c3b9                	beqz	a5,8000321a <emulate_fsqrt+0x60>
    800031d6:	4705                	li	a4,1
    800031d8:	02e79963          	bne	a5,a4,8000320a <emulate_fsqrt+0x50>
    800031dc:	00c45793          	srli	a5,s0,0xc
    800031e0:	0f87f793          	andi	a5,a5,248
    800031e4:	97aa                	add	a5,a5,a0
    800031e6:	1007b503          	ld	a0,256(a5) # 6100 <MEM_START-0x7fff9f00>
    800031ea:	8011                	srli	s0,s0,0x4
    800031ec:	0f847413          	andi	s0,s0,248
    800031f0:	788010ef          	jal	ra,80004978 <f64_sqrt>
    800031f4:	9426                	add	s0,s0,s1
    800031f6:	10a43023          	sd	a0,256(s0)
    800031fa:	6799                	lui	a5,0x6
    800031fc:	3007a7f3          	csrrs	a5,mstatus,a5
    80003200:	60e2                	ld	ra,24(sp)
    80003202:	6442                	ld	s0,16(sp)
    80003204:	64a2                	ld	s1,8(sp)
    80003206:	6105                	addi	sp,sp,32
    80003208:	8082                	ret
    8000320a:	8722                	mv	a4,s0
    8000320c:	6442                	ld	s0,16(sp)
    8000320e:	60e2                	ld	ra,24(sp)
    80003210:	8526                	mv	a0,s1
    80003212:	64a2                	ld	s1,8(sp)
    80003214:	6105                	addi	sp,sp,32
    80003216:	afbff06f          	j	80002d10 <truly_illegal_insn>
    8000321a:	00c75793          	srli	a5,a4,0xc
    8000321e:	0f87f793          	andi	a5,a5,248
    80003222:	97aa                	add	a5,a5,a0
    80003224:	1007a503          	lw	a0,256(a5) # 6100 <MEM_START-0x7fff9f00>
    80003228:	0ba010ef          	jal	ra,800042e2 <f32_sqrt>
    8000322c:	00445713          	srli	a4,s0,0x4
    80003230:	0f877713          	andi	a4,a4,248
    80003234:	00e48433          	add	s0,s1,a4
    80003238:	10a42023          	sw	a0,256(s0)
    8000323c:	6799                	lui	a5,0x6
    8000323e:	3007a7f3          	csrrs	a5,mstatus,a5
    80003242:	60e2                	ld	ra,24(sp)
    80003244:	6442                	ld	s0,16(sp)
    80003246:	64a2                	ld	s1,8(sp)
    80003248:	6105                	addi	sp,sp,32
    8000324a:	8082                	ret

000000008000324c <emulate_fsgnj>:
    8000324c:	00c75793          	srli	a5,a4,0xc
    80003250:	0077f893          	andi	a7,a5,7
    80003254:	4809                	li	a6,2
    80003256:	0b184663          	blt	a6,a7,80003302 <emulate_fsgnj+0xb6>
    8000325a:	01975813          	srli	a6,a4,0x19
    8000325e:	00387813          	andi	a6,a6,3
    80003262:	04080b63          	beqz	a6,800032b8 <emulate_fsgnj+0x6c>
    80003266:	4305                	li	t1,1
    80003268:	08681d63          	bne	a6,t1,80003302 <emulate_fsgnj+0xb6>
    8000326c:	01175613          	srli	a2,a4,0x11
    80003270:	0f87f793          	andi	a5,a5,248
    80003274:	0f867613          	andi	a2,a2,248
    80003278:	97aa                	add	a5,a5,a0
    8000327a:	962a                	add	a2,a2,a0
    8000327c:	1007b683          	ld	a3,256(a5) # 6100 <MEM_START-0x7fff9f00>
    80003280:	10063783          	ld	a5,256(a2) # 6100 <MEM_START-0x7fff9f00>
    80003284:	0018d613          	srli	a2,a7,0x1
    80003288:	03f6d593          	srli	a1,a3,0x3f
    8000328c:	93fd                	srli	a5,a5,0x3f
    8000328e:	8e6d                	and	a2,a2,a1
    80003290:	0117c7b3          	xor	a5,a5,a7
    80003294:	8fb1                	xor	a5,a5,a2
    80003296:	00169893          	slli	a7,a3,0x1
    8000329a:	8311                	srli	a4,a4,0x4
    8000329c:	0018d893          	srli	a7,a7,0x1
    800032a0:	0f877713          	andi	a4,a4,248
    800032a4:	17fe                	slli	a5,a5,0x3f
    800032a6:	0117e7b3          	or	a5,a5,a7
    800032aa:	972a                	add	a4,a4,a0
    800032ac:	10f73023          	sd	a5,256(a4)
    800032b0:	6799                	lui	a5,0x6
    800032b2:	3007a7f3          	csrrs	a5,mstatus,a5
    800032b6:	8082                	ret
    800032b8:	01175613          	srli	a2,a4,0x11
    800032bc:	0f87f793          	andi	a5,a5,248
    800032c0:	0f867613          	andi	a2,a2,248
    800032c4:	97aa                	add	a5,a5,a0
    800032c6:	962a                	add	a2,a2,a0
    800032c8:	1007a683          	lw	a3,256(a5) # 6100 <MEM_START-0x7fff9f00>
    800032cc:	10062783          	lw	a5,256(a2)
    800032d0:	4018d61b          	sraiw	a2,a7,0x1
    800032d4:	01f6d59b          	srliw	a1,a3,0x1f
    800032d8:	01f7d79b          	srliw	a5,a5,0x1f
    800032dc:	8e6d                	and	a2,a2,a1
    800032de:	00f8c7b3          	xor	a5,a7,a5
    800032e2:	8fb1                	xor	a5,a5,a2
    800032e4:	8311                	srli	a4,a4,0x4
    800032e6:	1686                	slli	a3,a3,0x21
    800032e8:	0f877713          	andi	a4,a4,248
    800032ec:	9285                	srli	a3,a3,0x21
    800032ee:	01f7979b          	slliw	a5,a5,0x1f
    800032f2:	8fd5                	or	a5,a5,a3
    800032f4:	953a                	add	a0,a0,a4
    800032f6:	10f52023          	sw	a5,256(a0)
    800032fa:	6799                	lui	a5,0x6
    800032fc:	3007a7f3          	csrrs	a5,mstatus,a5
    80003300:	8082                	ret
    80003302:	a0fff06f          	j	80002d10 <truly_illegal_insn>

0000000080003306 <emulate_fmin>:
    80003306:	7179                	addi	sp,sp,-48
    80003308:	00c75793          	srli	a5,a4,0xc
    8000330c:	f022                	sd	s0,32(sp)
    8000330e:	ec26                	sd	s1,24(sp)
    80003310:	843a                	mv	s0,a4
    80003312:	f406                	sd	ra,40(sp)
    80003314:	e84a                	sd	s2,16(sp)
    80003316:	e44e                	sd	s3,8(sp)
    80003318:	e052                	sd	s4,0(sp)
    8000331a:	0067f713          	andi	a4,a5,6
    8000331e:	84aa                	mv	s1,a0
    80003320:	e371                	bnez	a4,800033e4 <emulate_fmin+0xde>
    80003322:	01945713          	srli	a4,s0,0x19
    80003326:	8b0d                	andi	a4,a4,3
    80003328:	0077f813          	andi	a6,a5,7
    8000332c:	c33d                	beqz	a4,80003392 <emulate_fmin+0x8c>
    8000332e:	4505                	li	a0,1
    80003330:	0aa71a63          	bne	a4,a0,800033e4 <emulate_fmin+0xde>
    80003334:	01145713          	srli	a4,s0,0x11
    80003338:	0f87f793          	andi	a5,a5,248
    8000333c:	0f877713          	andi	a4,a4,248
    80003340:	97a6                	add	a5,a5,s1
    80003342:	9726                	add	a4,a4,s1
    80003344:	1007b903          	ld	s2,256(a5) # 6100 <MEM_START-0x7fff9f00>
    80003348:	10073983          	ld	s3,256(a4)
    8000334c:	85ca                	mv	a1,s2
    8000334e:	854e                	mv	a0,s3
    80003350:	0c080663          	beqz	a6,8000341c <emulate_fmin+0x116>
    80003354:	45e010ef          	jal	ra,800047b2 <f64_lt_quiet>
    80003358:	e919                	bnez	a0,8000336e <emulate_fmin+0x68>
    8000335a:	7ff00713          	li	a4,2047
    8000335e:	fff9c793          	not	a5,s3
    80003362:	1752                	slli	a4,a4,0x34
    80003364:	8ff9                	and	a5,a5,a4
    80003366:	e3e9                	bnez	a5,80003428 <emulate_fmin+0x122>
    80003368:	00c99793          	slli	a5,s3,0xc
    8000336c:	cfd5                	beqz	a5,80003428 <emulate_fmin+0x122>
    8000336e:	8011                	srli	s0,s0,0x4
    80003370:	0f847413          	andi	s0,s0,248
    80003374:	00848533          	add	a0,s1,s0
    80003378:	11253023          	sd	s2,256(a0)
    8000337c:	6799                	lui	a5,0x6
    8000337e:	3007a7f3          	csrrs	a5,mstatus,a5
    80003382:	70a2                	ld	ra,40(sp)
    80003384:	7402                	ld	s0,32(sp)
    80003386:	64e2                	ld	s1,24(sp)
    80003388:	6942                	ld	s2,16(sp)
    8000338a:	69a2                	ld	s3,8(sp)
    8000338c:	6a02                	ld	s4,0(sp)
    8000338e:	6145                	addi	sp,sp,48
    80003390:	8082                	ret
    80003392:	01145713          	srli	a4,s0,0x11
    80003396:	0f877713          	andi	a4,a4,248
    8000339a:	972a                	add	a4,a4,a0
    8000339c:	0f87f793          	andi	a5,a5,248
    800033a0:	97aa                	add	a5,a5,a0
    800033a2:	10072a03          	lw	s4,256(a4)
    800033a6:	1007a983          	lw	s3,256(a5) # 6100 <MEM_START-0x7fff9f00>
    800033aa:	000a091b          	sext.w	s2,s4
    800033ae:	854a                	mv	a0,s2
    800033b0:	0009859b          	sext.w	a1,s3
    800033b4:	04080e63          	beqz	a6,80003410 <emulate_fmin+0x10a>
    800033b8:	555000ef          	jal	ra,8000410c <f32_lt_quiet>
    800033bc:	cd1d                	beqz	a0,800033fa <emulate_fmin+0xf4>
    800033be:	00445713          	srli	a4,s0,0x4
    800033c2:	0f877713          	andi	a4,a4,248
    800033c6:	00e48533          	add	a0,s1,a4
    800033ca:	11352023          	sw	s3,256(a0)
    800033ce:	6799                	lui	a5,0x6
    800033d0:	3007a7f3          	csrrs	a5,mstatus,a5
    800033d4:	70a2                	ld	ra,40(sp)
    800033d6:	7402                	ld	s0,32(sp)
    800033d8:	64e2                	ld	s1,24(sp)
    800033da:	6942                	ld	s2,16(sp)
    800033dc:	69a2                	ld	s3,8(sp)
    800033de:	6a02                	ld	s4,0(sp)
    800033e0:	6145                	addi	sp,sp,48
    800033e2:	8082                	ret
    800033e4:	8722                	mv	a4,s0
    800033e6:	7402                	ld	s0,32(sp)
    800033e8:	70a2                	ld	ra,40(sp)
    800033ea:	6942                	ld	s2,16(sp)
    800033ec:	69a2                	ld	s3,8(sp)
    800033ee:	6a02                	ld	s4,0(sp)
    800033f0:	8526                	mv	a0,s1
    800033f2:	64e2                	ld	s1,24(sp)
    800033f4:	6145                	addi	sp,sp,48
    800033f6:	91bff06f          	j	80002d10 <truly_illegal_insn>
    800033fa:	fff94793          	not	a5,s2
    800033fe:	7f800737          	lui	a4,0x7f800
    80003402:	8ff9                	and	a5,a5,a4
    80003404:	e781                	bnez	a5,8000340c <emulate_fmin+0x106>
    80003406:	1926                	slli	s2,s2,0x29
    80003408:	fa091be3          	bnez	s2,800033be <emulate_fmin+0xb8>
    8000340c:	89d2                	mv	s3,s4
    8000340e:	bf45                	j	800033be <emulate_fmin+0xb8>
    80003410:	852e                	mv	a0,a1
    80003412:	85ca                	mv	a1,s2
    80003414:	4f9000ef          	jal	ra,8000410c <f32_lt_quiet>
    80003418:	f15d                	bnez	a0,800033be <emulate_fmin+0xb8>
    8000341a:	b7c5                	j	800033fa <emulate_fmin+0xf4>
    8000341c:	854a                	mv	a0,s2
    8000341e:	85ce                	mv	a1,s3
    80003420:	392010ef          	jal	ra,800047b2 <f64_lt_quiet>
    80003424:	f529                	bnez	a0,8000336e <emulate_fmin+0x68>
    80003426:	bf15                	j	8000335a <emulate_fmin+0x54>
    80003428:	8011                	srli	s0,s0,0x4
    8000342a:	0f847413          	andi	s0,s0,248
    8000342e:	894e                	mv	s2,s3
    80003430:	00848533          	add	a0,s1,s0
    80003434:	11253023          	sd	s2,256(a0)
    80003438:	6799                	lui	a5,0x6
    8000343a:	3007a7f3          	csrrs	a5,mstatus,a5
    8000343e:	b791                	j	80003382 <emulate_fmin+0x7c>

0000000080003440 <emulate_fcvt_ff>:
    80003440:	1101                	addi	sp,sp,-32
    80003442:	01975793          	srli	a5,a4,0x19
    80003446:	e822                	sd	s0,16(sp)
    80003448:	e426                	sd	s1,8(sp)
    8000344a:	01475813          	srli	a6,a4,0x14
    8000344e:	ec06                	sd	ra,24(sp)
    80003450:	8b8d                	andi	a5,a5,3
    80003452:	843a                	mv	s0,a4
    80003454:	84aa                	mv	s1,a0
    80003456:	01f87813          	andi	a6,a6,31
    8000345a:	eb91                	bnez	a5,8000346e <emulate_fcvt_ff+0x2e>
    8000345c:	4785                	li	a5,1
    8000345e:	04f80563          	beq	a6,a5,800034a8 <emulate_fcvt_ff+0x68>
    80003462:	6442                	ld	s0,16(sp)
    80003464:	60e2                	ld	ra,24(sp)
    80003466:	64a2                	ld	s1,8(sp)
    80003468:	6105                	addi	sp,sp,32
    8000346a:	8a7ff06f          	j	80002d10 <truly_illegal_insn>
    8000346e:	4885                	li	a7,1
    80003470:	ff1799e3          	bne	a5,a7,80003462 <emulate_fcvt_ff+0x22>
    80003474:	fe0817e3          	bnez	a6,80003462 <emulate_fcvt_ff+0x22>
    80003478:	00c75793          	srli	a5,a4,0xc
    8000347c:	0f87f793          	andi	a5,a5,248
    80003480:	97aa                	add	a5,a5,a0
    80003482:	1007a503          	lw	a0,256(a5) # 6100 <MEM_START-0x7fff9f00>
    80003486:	74d000ef          	jal	ra,800043d2 <f32_to_f64>
    8000348a:	00445713          	srli	a4,s0,0x4
    8000348e:	0f877713          	andi	a4,a4,248
    80003492:	9726                	add	a4,a4,s1
    80003494:	10a73023          	sd	a0,256(a4) # 7f800100 <MEM_START-0x7fff00>
    80003498:	6799                	lui	a5,0x6
    8000349a:	3007a7f3          	csrrs	a5,mstatus,a5
    8000349e:	60e2                	ld	ra,24(sp)
    800034a0:	6442                	ld	s0,16(sp)
    800034a2:	64a2                	ld	s1,8(sp)
    800034a4:	6105                	addi	sp,sp,32
    800034a6:	8082                	ret
    800034a8:	00c75793          	srli	a5,a4,0xc
    800034ac:	0f87f793          	andi	a5,a5,248
    800034b0:	97aa                	add	a5,a5,a0
    800034b2:	1007b503          	ld	a0,256(a5) # 6100 <MEM_START-0x7fff9f00>
    800034b6:	8011                	srli	s0,s0,0x4
    800034b8:	0f847413          	andi	s0,s0,248
    800034bc:	5dc010ef          	jal	ra,80004a98 <f64_to_f32>
    800034c0:	9426                	add	s0,s0,s1
    800034c2:	10a42023          	sw	a0,256(s0)
    800034c6:	6799                	lui	a5,0x6
    800034c8:	3007a7f3          	csrrs	a5,mstatus,a5
    800034cc:	60e2                	ld	ra,24(sp)
    800034ce:	6442                	ld	s0,16(sp)
    800034d0:	64a2                	ld	s1,8(sp)
    800034d2:	6105                	addi	sp,sp,32
    800034d4:	8082                	ret

00000000800034d6 <emulate_fcvt_fi>:
    800034d6:	02571793          	slli	a5,a4,0x25
    800034da:	0a07c663          	bltz	a5,80003586 <emulate_fcvt_fi+0xb0>
    800034de:	1101                	addi	sp,sp,-32
    800034e0:	e822                	sd	s0,16(sp)
    800034e2:	843a                	mv	s0,a4
    800034e4:	8331                	srli	a4,a4,0xc
    800034e6:	0f877713          	andi	a4,a4,248
    800034ea:	01445793          	srli	a5,s0,0x14
    800034ee:	e426                	sd	s1,8(sp)
    800034f0:	8336                	mv	t1,a3
    800034f2:	972a                	add	a4,a4,a0
    800034f4:	ec06                	sd	ra,24(sp)
    800034f6:	8bfd                	andi	a5,a5,31
    800034f8:	4689                	li	a3,2
    800034fa:	84aa                	mv	s1,a0
    800034fc:	6308                	ld	a0,0(a4)
    800034fe:	0ad78463          	beq	a5,a3,800035a6 <emulate_fcvt_fi+0xd0>
    80003502:	882e                	mv	a6,a1
    80003504:	88b2                	mv	a7,a2
    80003506:	02f6ed63          	bltu	a3,a5,80003540 <emulate_fcvt_fi+0x6a>
    8000350a:	c3c1                	beqz	a5,8000358a <emulate_fcvt_fi+0xb4>
    8000350c:	4705                	li	a4,1
    8000350e:	06e79363          	bne	a5,a4,80003574 <emulate_fcvt_fi+0x9e>
    80003512:	1502                	slli	a0,a0,0x20
    80003514:	9101                	srli	a0,a0,0x20
    80003516:	207020ef          	jal	ra,80005f1c <ui64_to_f64>
    8000351a:	00445793          	srli	a5,s0,0x4
    8000351e:	0f87f793          	andi	a5,a5,248
    80003522:	8065                	srli	s0,s0,0x19
    80003524:	10078793          	addi	a5,a5,256 # 6100 <MEM_START-0x7fff9f00>
    80003528:	880d                	andi	s0,s0,3
    8000352a:	94be                	add	s1,s1,a5
    8000352c:	c80d                	beqz	s0,8000355e <emulate_fcvt_fi+0x88>
    8000352e:	e088                	sd	a0,0(s1)
    80003530:	6799                	lui	a5,0x6
    80003532:	3007a7f3          	csrrs	a5,mstatus,a5
    80003536:	60e2                	ld	ra,24(sp)
    80003538:	6442                	ld	s0,16(sp)
    8000353a:	64a2                	ld	s1,8(sp)
    8000353c:	6105                	addi	sp,sp,32
    8000353e:	8082                	ret
    80003540:	470d                	li	a4,3
    80003542:	02e79963          	bne	a5,a4,80003574 <emulate_fcvt_fi+0x9e>
    80003546:	1d7020ef          	jal	ra,80005f1c <ui64_to_f64>
    8000354a:	00445793          	srli	a5,s0,0x4
    8000354e:	0f87f793          	andi	a5,a5,248
    80003552:	8065                	srli	s0,s0,0x19
    80003554:	10078793          	addi	a5,a5,256 # 6100 <MEM_START-0x7fff9f00>
    80003558:	880d                	andi	s0,s0,3
    8000355a:	94be                	add	s1,s1,a5
    8000355c:	f869                	bnez	s0,8000352e <emulate_fcvt_fi+0x58>
    8000355e:	53a010ef          	jal	ra,80004a98 <f64_to_f32>
    80003562:	c088                	sw	a0,0(s1)
    80003564:	6799                	lui	a5,0x6
    80003566:	3007a7f3          	csrrs	a5,mstatus,a5
    8000356a:	60e2                	ld	ra,24(sp)
    8000356c:	6442                	ld	s0,16(sp)
    8000356e:	64a2                	ld	s1,8(sp)
    80003570:	6105                	addi	sp,sp,32
    80003572:	8082                	ret
    80003574:	8722                	mv	a4,s0
    80003576:	6442                	ld	s0,16(sp)
    80003578:	60e2                	ld	ra,24(sp)
    8000357a:	8526                	mv	a0,s1
    8000357c:	869a                	mv	a3,t1
    8000357e:	64a2                	ld	s1,8(sp)
    80003580:	8646                	mv	a2,a7
    80003582:	85c2                	mv	a1,a6
    80003584:	6105                	addi	sp,sp,32
    80003586:	f8aff06f          	j	80002d10 <truly_illegal_insn>
    8000358a:	02051793          	slli	a5,a0,0x20
    8000358e:	f807d2e3          	bgez	a5,80003512 <emulate_fcvt_fi+0x3c>
    80003592:	40a0053b          	negw	a0,a0
    80003596:	1502                	slli	a0,a0,0x20
    80003598:	9101                	srli	a0,a0,0x20
    8000359a:	183020ef          	jal	ra,80005f1c <ui64_to_f64>
    8000359e:	57fd                	li	a5,-1
    800035a0:	17fe                	slli	a5,a5,0x3f
    800035a2:	8d3d                	xor	a0,a0,a5
    800035a4:	bf9d                	j	8000351a <emulate_fcvt_fi+0x44>
    800035a6:	fa0550e3          	bgez	a0,80003546 <emulate_fcvt_fi+0x70>
    800035aa:	40a00533          	neg	a0,a0
    800035ae:	b7f5                	j	8000359a <emulate_fcvt_fi+0xc4>

00000000800035b0 <emulate_fcvt_if>:
    800035b0:	7179                	addi	sp,sp,-48
    800035b2:	01475793          	srli	a5,a4,0x14
    800035b6:	f022                	sd	s0,32(sp)
    800035b8:	e84a                	sd	s2,16(sp)
    800035ba:	843a                	mv	s0,a4
    800035bc:	f406                	sd	ra,40(sp)
    800035be:	ec26                	sd	s1,24(sp)
    800035c0:	e44e                	sd	s3,8(sp)
    800035c2:	e052                	sd	s4,0(sp)
    800035c4:	01c7f713          	andi	a4,a5,28
    800035c8:	892a                	mv	s2,a0
    800035ca:	eb3d                	bnez	a4,80003640 <emulate_fcvt_if+0x90>
    800035cc:	0007849b          	sext.w	s1,a5
    800035d0:	01945793          	srli	a5,s0,0x19
    800035d4:	8b8d                	andi	a5,a5,3
    800035d6:	c3c1                	beqz	a5,80003656 <emulate_fcvt_if+0xa6>
    800035d8:	4705                	li	a4,1
    800035da:	06e79363          	bne	a5,a4,80003640 <emulate_fcvt_if+0x90>
    800035de:	00c45793          	srli	a5,s0,0xc
    800035e2:	0f87f793          	andi	a5,a5,248
    800035e6:	97aa                	add	a5,a5,a0
    800035e8:	1007b503          	ld	a0,256(a5) # 6100 <MEM_START-0x7fff9f00>
    800035ec:	88fd                	andi	s1,s1,31
    800035ee:	40d2559b          	sraiw	a1,tp,0xd
    800035f2:	08054063          	bltz	a0,80003672 <emulate_fcvt_if+0xc2>
    800035f6:	4605                	li	a2,1
    800035f8:	51e010ef          	jal	ra,80004b16 <f64_to_ui64>
    800035fc:	4789                	li	a5,2
    800035fe:	0af48c63          	beq	s1,a5,800036b6 <emulate_fcvt_if+0x106>
    80003602:	872a                	mv	a4,a0
    80003604:	0097cd63          	blt	a5,s1,8000361e <emulate_fcvt_if+0x6e>
    80003608:	ccc5                	beqz	s1,800036c0 <emulate_fcvt_if+0x110>
    8000360a:	577d                	li	a4,-1
    8000360c:	9301                	srli	a4,a4,0x20
    8000360e:	87ba                	mv	a5,a4
    80003610:	86be                	mv	a3,a5
    80003612:	8f69                	and	a4,a4,a0
    80003614:	00a6f563          	bgeu	a3,a0,8000361e <emulate_fcvt_if+0x6e>
    80003618:	01026213          	ori	tp,tp,16
    8000361c:	873e                	mv	a4,a5
    8000361e:	6799                	lui	a5,0x6
    80003620:	3007a7f3          	csrrs	a5,mstatus,a5
    80003624:	8011                	srli	s0,s0,0x4
    80003626:	0f847413          	andi	s0,s0,248
    8000362a:	00890533          	add	a0,s2,s0
    8000362e:	70a2                	ld	ra,40(sp)
    80003630:	7402                	ld	s0,32(sp)
    80003632:	e118                	sd	a4,0(a0)
    80003634:	64e2                	ld	s1,24(sp)
    80003636:	6942                	ld	s2,16(sp)
    80003638:	69a2                	ld	s3,8(sp)
    8000363a:	6a02                	ld	s4,0(sp)
    8000363c:	6145                	addi	sp,sp,48
    8000363e:	8082                	ret
    80003640:	8722                	mv	a4,s0
    80003642:	7402                	ld	s0,32(sp)
    80003644:	70a2                	ld	ra,40(sp)
    80003646:	64e2                	ld	s1,24(sp)
    80003648:	69a2                	ld	s3,8(sp)
    8000364a:	6a02                	ld	s4,0(sp)
    8000364c:	854a                	mv	a0,s2
    8000364e:	6942                	ld	s2,16(sp)
    80003650:	6145                	addi	sp,sp,48
    80003652:	ebeff06f          	j	80002d10 <truly_illegal_insn>
    80003656:	00c45793          	srli	a5,s0,0xc
    8000365a:	0f87f793          	andi	a5,a5,248
    8000365e:	97aa                	add	a5,a5,a0
    80003660:	1007a503          	lw	a0,256(a5) # 6100 <MEM_START-0x7fff9f00>
    80003664:	88fd                	andi	s1,s1,31
    80003666:	56d000ef          	jal	ra,800043d2 <f32_to_f64>
    8000366a:	40d2559b          	sraiw	a1,tp,0xd
    8000366e:	f80554e3          	bgez	a0,800035f6 <emulate_fcvt_if+0x46>
    80003672:	5a7d                	li	s4,-1
    80003674:	03fa1993          	slli	s3,s4,0x3f
    80003678:	4605                	li	a2,1
    8000367a:	01354533          	xor	a0,a0,s3
    8000367e:	498010ef          	jal	ra,80004b16 <f64_to_ui64>
    80003682:	4709                	li	a4,2
    80003684:	02e48463          	beq	s1,a4,800036ac <emulate_fcvt_if+0xfc>
    80003688:	00974e63          	blt	a4,s1,800036a4 <emulate_fcvt_if+0xf4>
    8000368c:	c491                	beqz	s1,80003698 <emulate_fcvt_if+0xe8>
    8000368e:	020a5793          	srli	a5,s4,0x20
    80003692:	4681                	li	a3,0
    80003694:	4701                	li	a4,0
    80003696:	bfbd                	j	80003614 <emulate_fcvt_if+0x64>
    80003698:	4785                	li	a5,1
    8000369a:	07fe                	slli	a5,a5,0x1f
    8000369c:	40a0073b          	negw	a4,a0
    800036a0:	86be                	mv	a3,a5
    800036a2:	bf8d                	j	80003614 <emulate_fcvt_if+0x64>
    800036a4:	57fd                	li	a5,-1
    800036a6:	4681                	li	a3,0
    800036a8:	4701                	li	a4,0
    800036aa:	b7ad                	j	80003614 <emulate_fcvt_if+0x64>
    800036ac:	87ce                	mv	a5,s3
    800036ae:	40a00733          	neg	a4,a0
    800036b2:	86ce                	mv	a3,s3
    800036b4:	b785                	j	80003614 <emulate_fcvt_if+0x64>
    800036b6:	57fd                	li	a5,-1
    800036b8:	8385                	srli	a5,a5,0x1
    800036ba:	872a                	mv	a4,a0
    800036bc:	86be                	mv	a3,a5
    800036be:	bf99                	j	80003614 <emulate_fcvt_if+0x64>
    800036c0:	800007b7          	lui	a5,0x80000
    800036c4:	fff7c793          	not	a5,a5
    800036c8:	0005071b          	sext.w	a4,a0
    800036cc:	86be                	mv	a3,a5
    800036ce:	b799                	j	80003614 <emulate_fcvt_if+0x64>

00000000800036d0 <emulate_fcmp>:
    800036d0:	7179                	addi	sp,sp,-48
    800036d2:	00c75793          	srli	a5,a4,0xc
    800036d6:	f022                	sd	s0,32(sp)
    800036d8:	ec26                	sd	s1,24(sp)
    800036da:	e84a                	sd	s2,16(sp)
    800036dc:	843a                	mv	s0,a4
    800036de:	f406                	sd	ra,40(sp)
    800036e0:	e44e                	sd	s3,8(sp)
    800036e2:	e052                	sd	s4,0(sp)
    800036e4:	0077f913          	andi	s2,a5,7
    800036e8:	4709                	li	a4,2
    800036ea:	84aa                	mv	s1,a0
    800036ec:	01274963          	blt	a4,s2,800036fe <emulate_fcmp+0x2e>
    800036f0:	01945713          	srli	a4,s0,0x19
    800036f4:	8b0d                	andi	a4,a4,3
    800036f6:	cf19                	beqz	a4,80003714 <emulate_fcmp+0x44>
    800036f8:	4505                	li	a0,1
    800036fa:	06a70963          	beq	a4,a0,8000376c <emulate_fcmp+0x9c>
    800036fe:	8722                	mv	a4,s0
    80003700:	7402                	ld	s0,32(sp)
    80003702:	70a2                	ld	ra,40(sp)
    80003704:	6942                	ld	s2,16(sp)
    80003706:	69a2                	ld	s3,8(sp)
    80003708:	6a02                	ld	s4,0(sp)
    8000370a:	8526                	mv	a0,s1
    8000370c:	64e2                	ld	s1,24(sp)
    8000370e:	6145                	addi	sp,sp,48
    80003710:	e00ff06f          	j	80002d10 <truly_illegal_insn>
    80003714:	01145713          	srli	a4,s0,0x11
    80003718:	0f87f793          	andi	a5,a5,248
    8000371c:	0f877713          	andi	a4,a4,248
    80003720:	97aa                	add	a5,a5,a0
    80003722:	972a                	add	a4,a4,a0
    80003724:	4685                	li	a3,1
    80003726:	1007a983          	lw	s3,256(a5) # ffffffff80000100 <_payload_end+0xfffffffeffc2835c>
    8000372a:	10072a03          	lw	s4,256(a4)
    8000372e:	02d91663          	bne	s2,a3,8000375a <emulate_fcmp+0x8a>
    80003732:	85d2                	mv	a1,s4
    80003734:	854e                	mv	a0,s3
    80003736:	16f000ef          	jal	ra,800040a4 <f32_lt>
    8000373a:	6799                	lui	a5,0x6
    8000373c:	3007a7f3          	csrrs	a5,mstatus,a5
    80003740:	8011                	srli	s0,s0,0x4
    80003742:	0f847413          	andi	s0,s0,248
    80003746:	9426                	add	s0,s0,s1
    80003748:	70a2                	ld	ra,40(sp)
    8000374a:	e008                	sd	a0,0(s0)
    8000374c:	7402                	ld	s0,32(sp)
    8000374e:	64e2                	ld	s1,24(sp)
    80003750:	6942                	ld	s2,16(sp)
    80003752:	69a2                	ld	s3,8(sp)
    80003754:	6a02                	ld	s4,0(sp)
    80003756:	6145                	addi	sp,sp,48
    80003758:	8082                	ret
    8000375a:	85d2                	mv	a1,s4
    8000375c:	854e                	mv	a0,s3
    8000375e:	0d3000ef          	jal	ra,80004030 <f32_eq>
    80003762:	fc091ce3          	bnez	s2,8000373a <emulate_fcmp+0x6a>
    80003766:	d571                	beqz	a0,80003732 <emulate_fcmp+0x62>
    80003768:	4505                	li	a0,1
    8000376a:	bfc1                	j	8000373a <emulate_fcmp+0x6a>
    8000376c:	01145693          	srli	a3,s0,0x11
    80003770:	0f87f793          	andi	a5,a5,248
    80003774:	0f86f693          	andi	a3,a3,248
    80003778:	97a6                	add	a5,a5,s1
    8000377a:	96a6                	add	a3,a3,s1
    8000377c:	1007b983          	ld	s3,256(a5) # 6100 <MEM_START-0x7fff9f00>
    80003780:	1006ba03          	ld	s4,256(a3)
    80003784:	00e91763          	bne	s2,a4,80003792 <emulate_fcmp+0xc2>
    80003788:	85d2                	mv	a1,s4
    8000378a:	854e                	mv	a0,s3
    8000378c:	7c3000ef          	jal	ra,8000474e <f64_lt>
    80003790:	b76d                	j	8000373a <emulate_fcmp+0x6a>
    80003792:	85d2                	mv	a1,s4
    80003794:	854e                	mv	a0,s3
    80003796:	73f000ef          	jal	ra,800046d4 <f64_eq>
    8000379a:	fa0910e3          	bnez	s2,8000373a <emulate_fcmp+0x6a>
    8000379e:	d56d                	beqz	a0,80003788 <emulate_fcmp+0xb8>
    800037a0:	4505                	li	a0,1
    800037a2:	bf61                	j	8000373a <emulate_fcmp+0x6a>

00000000800037a4 <emulate_fmv_if>:
    800037a4:	1101                	addi	sp,sp,-32
    800037a6:	01475793          	srli	a5,a4,0x14
    800037aa:	e822                	sd	s0,16(sp)
    800037ac:	e426                	sd	s1,8(sp)
    800037ae:	ec06                	sd	ra,24(sp)
    800037b0:	8bfd                	andi	a5,a5,31
    800037b2:	843a                	mv	s0,a4
    800037b4:	84aa                	mv	s1,a0
    800037b6:	882e                	mv	a6,a1
    800037b8:	88b2                	mv	a7,a2
    800037ba:	8336                	mv	t1,a3
    800037bc:	efa5                	bnez	a5,80003834 <emulate_fmv_if+0x90>
    800037be:	01975793          	srli	a5,a4,0x19
    800037c2:	8b8d                	andi	a5,a5,3
    800037c4:	e39d                	bnez	a5,800037ea <emulate_fmv_if+0x46>
    800037c6:	00c75793          	srli	a5,a4,0xc
    800037ca:	0f87f813          	andi	a6,a5,248
    800037ce:	982a                	add	a6,a6,a0
    800037d0:	8b9d                	andi	a5,a5,7
    800037d2:	10082803          	lw	a6,256(a6) # 7100 <MEM_START-0x7fff8f00>
    800037d6:	c3a9                	beqz	a5,80003818 <emulate_fmv_if+0x74>
    800037d8:	4885                	li	a7,1
    800037da:	07178863          	beq	a5,a7,8000384a <emulate_fmv_if+0xa6>
    800037de:	6442                	ld	s0,16(sp)
    800037e0:	60e2                	ld	ra,24(sp)
    800037e2:	64a2                	ld	s1,8(sp)
    800037e4:	6105                	addi	sp,sp,32
    800037e6:	d2aff06f          	j	80002d10 <truly_illegal_insn>
    800037ea:	4e05                	li	t3,1
    800037ec:	05c79463          	bne	a5,t3,80003834 <emulate_fmv_if+0x90>
    800037f0:	00c75893          	srli	a7,a4,0xc
    800037f4:	0f88f813          	andi	a6,a7,248
    800037f8:	982a                	add	a6,a6,a0
    800037fa:	0078f893          	andi	a7,a7,7
    800037fe:	10083803          	ld	a6,256(a6)
    80003802:	00088b63          	beqz	a7,80003818 <emulate_fmv_if+0x74>
    80003806:	fcf89ce3          	bne	a7,a5,800037de <emulate_fmv_if+0x3a>
    8000380a:	8542                	mv	a0,a6
    8000380c:	3bc010ef          	jal	ra,80004bc8 <f64_classify>
    80003810:	02051813          	slli	a6,a0,0x20
    80003814:	02085813          	srli	a6,a6,0x20
    80003818:	6799                	lui	a5,0x6
    8000381a:	3007a7f3          	csrrs	a5,mstatus,a5
    8000381e:	8011                	srli	s0,s0,0x4
    80003820:	0f847413          	andi	s0,s0,248
    80003824:	9426                	add	s0,s0,s1
    80003826:	60e2                	ld	ra,24(sp)
    80003828:	01043023          	sd	a6,0(s0)
    8000382c:	6442                	ld	s0,16(sp)
    8000382e:	64a2                	ld	s1,8(sp)
    80003830:	6105                	addi	sp,sp,32
    80003832:	8082                	ret
    80003834:	8722                	mv	a4,s0
    80003836:	6442                	ld	s0,16(sp)
    80003838:	60e2                	ld	ra,24(sp)
    8000383a:	8526                	mv	a0,s1
    8000383c:	64a2                	ld	s1,8(sp)
    8000383e:	869a                	mv	a3,t1
    80003840:	8646                	mv	a2,a7
    80003842:	85c2                	mv	a1,a6
    80003844:	6105                	addi	sp,sp,32
    80003846:	ccaff06f          	j	80002d10 <truly_illegal_insn>
    8000384a:	8542                	mv	a0,a6
    8000384c:	409000ef          	jal	ra,80004454 <f32_classify>
    80003850:	02051813          	slli	a6,a0,0x20
    80003854:	02085813          	srli	a6,a6,0x20
    80003858:	b7c1                	j	80003818 <emulate_fmv_if+0x74>

000000008000385a <emulate_fmv_fi>:
    8000385a:	00c75893          	srli	a7,a4,0xc
    8000385e:	0f88f313          	andi	t1,a7,248
    80003862:	48bd                	li	a7,15
    80003864:	00006e17          	auipc	t3,0x6
    80003868:	f8ce3e03          	ld	t3,-116(t3) # 800097f0 <dtb_end+0x7>
    8000386c:	08f2                	slli	a7,a7,0x1c
    8000386e:	932a                	add	t1,t1,a0
    80003870:	01c77e33          	and	t3,a4,t3
    80003874:	05388893          	addi	a7,a7,83 # e053 <MEM_START-0x7fff1fad>
    80003878:	00033303          	ld	t1,0(t1)
    8000387c:	031e0663          	beq	t3,a7,800038a8 <emulate_fmv_fi+0x4e>
    80003880:	07900893          	li	a7,121
    80003884:	08e6                	slli	a7,a7,0x19
    80003886:	05388893          	addi	a7,a7,83
    8000388a:	011e1d63          	bne	t3,a7,800038a4 <emulate_fmv_fi+0x4a>
    8000388e:	00475793          	srli	a5,a4,0x4
    80003892:	0f87f793          	andi	a5,a5,248
    80003896:	97aa                	add	a5,a5,a0
    80003898:	1067b023          	sd	t1,256(a5) # 6100 <MEM_START-0x7fff9f00>
    8000389c:	6799                	lui	a5,0x6
    8000389e:	3007a7f3          	csrrs	a5,mstatus,a5
    800038a2:	8082                	ret
    800038a4:	c6cff06f          	j	80002d10 <truly_illegal_insn>
    800038a8:	8311                	srli	a4,a4,0x4
    800038aa:	0f877713          	andi	a4,a4,248
    800038ae:	972a                	add	a4,a4,a0
    800038b0:	10672023          	sw	t1,256(a4)
    800038b4:	6799                	lui	a5,0x6
    800038b6:	3007a7f3          	csrrs	a5,mstatus,a5
    800038ba:	8082                	ret

00000000800038bc <emulate_fmadd>:
    800038bc:	1101                	addi	sp,sp,-32
    800038be:	6799                	lui	a5,0x6
    800038c0:	e822                	sd	s0,16(sp)
    800038c2:	e426                	sd	s1,8(sp)
    800038c4:	ec06                	sd	ra,24(sp)
    800038c6:	8ff5                	and	a5,a5,a3
    800038c8:	84aa                	mv	s1,a0
    800038ca:	843a                	mv	s0,a4
    800038cc:	0e078c63          	beqz	a5,800039c4 <emulate_fmadd+0x108>
    800038d0:	651d                	lui	a0,0x7
    800038d2:	830d                	srli	a4,a4,0x3
    800038d4:	00245793          	srli	a5,s0,0x2
    800038d8:	00a478b3          	and	a7,s0,a0
    800038dc:	00177813          	andi	a6,a4,1
    800038e0:	0017f713          	andi	a4,a5,1
    800038e4:	0ff27793          	andi	a5,tp,255
    800038e8:	0ea89663          	bne	a7,a0,800039d4 <emulate_fmadd+0x118>
    800038ec:	0087951b          	slliw	a0,a5,0x8
    800038f0:	00a7e233          	or	tp,a5,a0
    800038f4:	01945793          	srli	a5,s0,0x19
    800038f8:	8b8d                	andi	a5,a5,3
    800038fa:	e3bd                	bnez	a5,80003960 <emulate_fmadd+0xa4>
    800038fc:	00c45793          	srli	a5,s0,0xc
    80003900:	0f87f793          	andi	a5,a5,248
    80003904:	97a6                	add	a5,a5,s1
    80003906:	1007a503          	lw	a0,256(a5) # 6100 <MEM_START-0x7fff9f00>
    8000390a:	00080663          	beqz	a6,80003916 <emulate_fmadd+0x5a>
    8000390e:	800007b7          	lui	a5,0x80000
    80003912:	8d3d                	xor	a0,a0,a5
    80003914:	2501                	sext.w	a0,a0
    80003916:	01145693          	srli	a3,s0,0x11
    8000391a:	01845793          	srli	a5,s0,0x18
    8000391e:	0f86f693          	andi	a3,a3,248
    80003922:	0f87f793          	andi	a5,a5,248
    80003926:	96a6                	add	a3,a3,s1
    80003928:	97a6                	add	a5,a5,s1
    8000392a:	1006a583          	lw	a1,256(a3)
    8000392e:	1007a603          	lw	a2,256(a5) # ffffffff80000100 <_payload_end+0xfffffffeffc2835c>
    80003932:	2501                	sext.w	a0,a0
    80003934:	c709                	beqz	a4,8000393e <emulate_fmadd+0x82>
    80003936:	800007b7          	lui	a5,0x80000
    8000393a:	8e3d                	xor	a2,a2,a5
    8000393c:	2601                	sext.w	a2,a2
    8000393e:	8011                	srli	s0,s0,0x4
    80003940:	4681                	li	a3,0
    80003942:	0f847413          	andi	s0,s0,248
    80003946:	6e0010ef          	jal	ra,80005026 <softfloat_mulAddF32>
    8000394a:	94a2                	add	s1,s1,s0
    8000394c:	10a4a023          	sw	a0,256(s1)
    80003950:	6799                	lui	a5,0x6
    80003952:	3007a7f3          	csrrs	a5,mstatus,a5
    80003956:	60e2                	ld	ra,24(sp)
    80003958:	6442                	ld	s0,16(sp)
    8000395a:	64a2                	ld	s1,8(sp)
    8000395c:	6105                	addi	sp,sp,32
    8000395e:	8082                	ret
    80003960:	4505                	li	a0,1
    80003962:	06a79163          	bne	a5,a0,800039c4 <emulate_fmadd+0x108>
    80003966:	00c45793          	srli	a5,s0,0xc
    8000396a:	0f87f793          	andi	a5,a5,248
    8000396e:	97a6                	add	a5,a5,s1
    80003970:	1007b503          	ld	a0,256(a5) # 6100 <MEM_START-0x7fff9f00>
    80003974:	00080563          	beqz	a6,8000397e <emulate_fmadd+0xc2>
    80003978:	57fd                	li	a5,-1
    8000397a:	17fe                	slli	a5,a5,0x3f
    8000397c:	8d3d                	xor	a0,a0,a5
    8000397e:	01145693          	srli	a3,s0,0x11
    80003982:	01845793          	srli	a5,s0,0x18
    80003986:	0f86f693          	andi	a3,a3,248
    8000398a:	0f87f793          	andi	a5,a5,248
    8000398e:	96a6                	add	a3,a3,s1
    80003990:	97a6                	add	a5,a5,s1
    80003992:	1006b583          	ld	a1,256(a3)
    80003996:	1007b603          	ld	a2,256(a5)
    8000399a:	c701                	beqz	a4,800039a2 <emulate_fmadd+0xe6>
    8000399c:	57fd                	li	a5,-1
    8000399e:	17fe                	slli	a5,a5,0x3f
    800039a0:	8e3d                	xor	a2,a2,a5
    800039a2:	8011                	srli	s0,s0,0x4
    800039a4:	4681                	li	a3,0
    800039a6:	0f847413          	andi	s0,s0,248
    800039aa:	0fd010ef          	jal	ra,800052a6 <softfloat_mulAddF64>
    800039ae:	9426                	add	s0,s0,s1
    800039b0:	10a43023          	sd	a0,256(s0)
    800039b4:	6799                	lui	a5,0x6
    800039b6:	3007a7f3          	csrrs	a5,mstatus,a5
    800039ba:	60e2                	ld	ra,24(sp)
    800039bc:	6442                	ld	s0,16(sp)
    800039be:	64a2                	ld	s1,8(sp)
    800039c0:	6105                	addi	sp,sp,32
    800039c2:	8082                	ret
    800039c4:	8722                	mv	a4,s0
    800039c6:	6442                	ld	s0,16(sp)
    800039c8:	60e2                	ld	ra,24(sp)
    800039ca:	8526                	mv	a0,s1
    800039cc:	64a2                	ld	s1,8(sp)
    800039ce:	6105                	addi	sp,sp,32
    800039d0:	b40ff06f          	j	80002d10 <truly_illegal_insn>
    800039d4:	00c45513          	srli	a0,s0,0xc
    800039d8:	00757313          	andi	t1,a0,7
    800039dc:	4891                	li	a7,4
    800039de:	fe68e3e3          	bltu	a7,t1,800039c4 <emulate_fmadd+0x108>
    800039e2:	00d5151b          	slliw	a0,a0,0xd
    800039e6:	68b9                	lui	a7,0xe
    800039e8:	01157533          	and	a0,a0,a7
    800039ec:	00f56233          	or	tp,a0,a5
    800039f0:	b711                	j	800038f4 <emulate_fmadd+0x38>

00000000800039f2 <emulate_float_load>:
    800039f2:	00c75813          	srli	a6,a4,0xc
    800039f6:	0f887813          	andi	a6,a6,248
    800039fa:	982a                	add	a6,a6,a0
    800039fc:	00083e03          	ld	t3,0(a6)
    80003a00:	6319                	lui	t1,0x6
    80003a02:	4147581b          	sraiw	a6,a4,0x14
    80003a06:	0066f333          	and	t1,a3,t1
    80003a0a:	87ba                	mv	a5,a4
    80003a0c:	9872                	add	a6,a6,t3
    80003a0e:	04030063          	beqz	t1,80003a4e <emulate_float_load+0x5c>
    80003a12:	631d                	lui	t1,0x7
    80003a14:	00677333          	and	t1,a4,t1
    80003a18:	6e09                	lui	t3,0x2
    80003a1a:	03c30c63          	beq	t1,t3,80003a52 <emulate_float_load+0x60>
    80003a1e:	6e0d                	lui	t3,0x3
    80003a20:	03c31763          	bne	t1,t3,80003a4e <emulate_float_load+0x5c>
    80003a24:	00787713          	andi	a4,a6,7
    80003a28:	eb39                	bnez	a4,80003a7e <emulate_float_load+0x8c>
    80003a2a:	8391                	srli	a5,a5,0x4
    80003a2c:	0f87f793          	andi	a5,a5,248
    80003a30:	97aa                	add	a5,a5,a0
    80003a32:	000205b7          	lui	a1,0x20
    80003a36:	3005a6f3          	csrrs	a3,mstatus,a1
    80003a3a:	00083703          	ld	a4,0(a6)
    80003a3e:	30069073          	csrw	mstatus,a3
    80003a42:	10e7b023          	sd	a4,256(a5) # 6100 <MEM_START-0x7fff9f00>
    80003a46:	6799                	lui	a5,0x6
    80003a48:	3007a7f3          	csrrs	a5,mstatus,a5
    80003a4c:	8082                	ret
    80003a4e:	ac2ff06f          	j	80002d10 <truly_illegal_insn>
    80003a52:	00387713          	andi	a4,a6,3
    80003a56:	e705                	bnez	a4,80003a7e <emulate_float_load+0x8c>
    80003a58:	0047d713          	srli	a4,a5,0x4
    80003a5c:	0f877713          	andi	a4,a4,248
    80003a60:	972a                	add	a4,a4,a0
    80003a62:	000205b7          	lui	a1,0x20
    80003a66:	3005a6f3          	csrrs	a3,mstatus,a1
    80003a6a:	00082783          	lw	a5,0(a6)
    80003a6e:	30069073          	csrw	mstatus,a3
    80003a72:	10f72023          	sw	a5,256(a4)
    80003a76:	6799                	lui	a5,0x6
    80003a78:	3007a7f3          	csrrs	a5,mstatus,a5
    80003a7c:	8082                	ret
    80003a7e:	34381073          	csrw	mtval,a6
    80003a82:	a859                	j	80003b18 <misaligned_load_trap>

0000000080003a84 <emulate_float_store>:
    80003a84:	00c75793          	srli	a5,a4,0xc
    80003a88:	0f87f893          	andi	a7,a5,248
    80003a8c:	98aa                	add	a7,a7,a0
    80003a8e:	4197531b          	sraiw	t1,a4,0x19
    80003a92:	00775793          	srli	a5,a4,0x7
    80003a96:	0008be03          	ld	t3,0(a7) # e000 <MEM_START-0x7fff2000>
    80003a9a:	8bfd                	andi	a5,a5,31
    80003a9c:	0053189b          	slliw	a7,t1,0x5
    80003aa0:	0117e7b3          	or	a5,a5,a7
    80003aa4:	6899                	lui	a7,0x6
    80003aa6:	2781                	sext.w	a5,a5
    80003aa8:	0116f8b3          	and	a7,a3,a7
    80003aac:	883a                	mv	a6,a4
    80003aae:	97f2                	add	a5,a5,t3
    80003ab0:	02088d63          	beqz	a7,80003aea <emulate_float_store+0x66>
    80003ab4:	689d                	lui	a7,0x7
    80003ab6:	011778b3          	and	a7,a4,a7
    80003aba:	6309                	lui	t1,0x2
    80003abc:	02688963          	beq	a7,t1,80003aee <emulate_float_store+0x6a>
    80003ac0:	630d                	lui	t1,0x3
    80003ac2:	02689463          	bne	a7,t1,80003aea <emulate_float_store+0x66>
    80003ac6:	0077f713          	andi	a4,a5,7
    80003aca:	e721                	bnez	a4,80003b12 <emulate_float_store+0x8e>
    80003acc:	01185813          	srli	a6,a6,0x11
    80003ad0:	0f887813          	andi	a6,a6,248
    80003ad4:	982a                	add	a6,a6,a0
    80003ad6:	10083703          	ld	a4,256(a6)
    80003ada:	000205b7          	lui	a1,0x20
    80003ade:	3005a6f3          	csrrs	a3,mstatus,a1
    80003ae2:	e398                	sd	a4,0(a5)
    80003ae4:	30069073          	csrw	mstatus,a3
    80003ae8:	8082                	ret
    80003aea:	a26ff06f          	j	80002d10 <truly_illegal_insn>
    80003aee:	0037f713          	andi	a4,a5,3
    80003af2:	e305                	bnez	a4,80003b12 <emulate_float_store+0x8e>
    80003af4:	01185813          	srli	a6,a6,0x11
    80003af8:	0f887813          	andi	a6,a6,248
    80003afc:	982a                	add	a6,a6,a0
    80003afe:	10082703          	lw	a4,256(a6)
    80003b02:	000205b7          	lui	a1,0x20
    80003b06:	3005a6f3          	csrrs	a3,mstatus,a1
    80003b0a:	c398                	sw	a4,0(a5)
    80003b0c:	30069073          	csrw	mstatus,a3
    80003b10:	8082                	ret
    80003b12:	34379073          	csrw	mtval,a5
    80003b16:	aae1                	j	80003cee <misaligned_store_trap>

0000000080003b18 <misaligned_load_trap>:
    80003b18:	000a05b7          	lui	a1,0xa0
    80003b1c:	478d                	li	a5,3
    80003b1e:	3005a6f3          	csrrs	a3,mstatus,a1
    80003b22:	00267813          	andi	a6,a2,2
    80003b26:	00081b63          	bnez	a6,80003b3c <misaligned_load_trap+0x24>
    80003b2a:	00066703          	lwu	a4,0(a2)
    80003b2e:	00f77833          	and	a6,a4,a5
    80003b32:	00f80f63          	beq	a6,a5,80003b50 <misaligned_load_trap+0x38>
    80003b36:	1742                	slli	a4,a4,0x30
    80003b38:	9341                	srli	a4,a4,0x30
    80003b3a:	a819                	j	80003b50 <misaligned_load_trap+0x38>
    80003b3c:	00065703          	lhu	a4,0(a2)
    80003b40:	00f77833          	and	a6,a4,a5
    80003b44:	00f81663          	bne	a6,a5,80003b50 <misaligned_load_trap+0x38>
    80003b48:	00265803          	lhu	a6,2(a2)
    80003b4c:	0842                	slli	a6,a6,0x10
    80003b4e:	9742                	add	a4,a4,a6
    80003b50:	30069073          	csrw	mstatus,a3
    80003b54:	00377593          	andi	a1,a4,3
    80003b58:	1141                	addi	sp,sp,-16
    80003b5a:	833a                	mv	t1,a4
    80003b5c:	8eb6                	mv	t4,a3
    80003b5e:	4e11                	li	t3,4
    80003b60:	00f58363          	beq	a1,a5,80003b66 <misaligned_load_trap+0x4e>
    80003b64:	4e09                	li	t3,2
    80003b66:	9e32                	add	t3,t3,a2
    80003b68:	34302873          	csrr	a6,mtval
    80003b6c:	679d                	lui	a5,0x7
    80003b6e:	6589                	lui	a1,0x2
    80003b70:	07f78793          	addi	a5,a5,127 # 707f <MEM_START-0x7fff8f81>
    80003b74:	8ff9                	and	a5,a5,a4
    80003b76:	00358893          	addi	a7,a1,3 # 2003 <MEM_START-0x7fffdffd>
    80003b7a:	0f178b63          	beq	a5,a7,80003c70 <misaligned_load_trap+0x158>
    80003b7e:	688d                	lui	a7,0x3
    80003b80:	00388f13          	addi	t5,a7,3 # 3003 <MEM_START-0x7fffcffd>
    80003b84:	07e78763          	beq	a5,t5,80003bf2 <misaligned_load_trap+0xda>
    80003b88:	6f19                	lui	t5,0x6
    80003b8a:	003f0f93          	addi	t6,t5,3 # 6003 <MEM_START-0x7fff9ffd>
    80003b8e:	11f78d63          	beq	a5,t6,80003ca8 <misaligned_load_trap+0x190>
    80003b92:	089d                	addi	a7,a7,7
    80003b94:	0f178b63          	beq	a5,a7,80003c8a <misaligned_load_trap+0x172>
    80003b98:	059d                	addi	a1,a1,7
    80003b9a:	10b78d63          	beq	a5,a1,80003cb4 <misaligned_load_trap+0x19c>
    80003b9e:	6585                	lui	a1,0x1
    80003ba0:	058d                	addi	a1,a1,3
    80003ba2:	10b78f63          	beq	a5,a1,80003cc0 <misaligned_load_trap+0x1a8>
    80003ba6:	6595                	lui	a1,0x5
    80003ba8:	058d                	addi	a1,a1,3
    80003baa:	12b78263          	beq	a5,a1,80003cce <misaligned_load_trap+0x1b6>
    80003bae:	67b9                	lui	a5,0xe
    80003bb0:	078d                	addi	a5,a5,3
    80003bb2:	8ff9                	and	a5,a5,a4
    80003bb4:	03e78963          	beq	a5,t5,80003be6 <misaligned_load_trap+0xce>
    80003bb8:	0f09                	addi	t5,t5,2
    80003bba:	13e78063          	beq	a5,t5,80003cda <misaligned_load_trap+0x1c2>
    80003bbe:	6591                	lui	a1,0x4
    80003bc0:	0ab78263          	beq	a5,a1,80003c64 <misaligned_load_trap+0x14c>
    80003bc4:	6591                	lui	a1,0x4
    80003bc6:	0589                	addi	a1,a1,2
    80003bc8:	10b78e63          	beq	a5,a1,80003ce4 <misaligned_load_trap+0x1cc>
    80003bcc:	6589                	lui	a1,0x2
    80003bce:	0ab78863          	beq	a5,a1,80003c7e <misaligned_load_trap+0x166>
    80003bd2:	0589                	addi	a1,a1,2
    80003bd4:	0ab78b63          	beq	a5,a1,80003c8a <misaligned_load_trap+0x172>
    80003bd8:	3422d073          	csrwi	mcause,5
    80003bdc:	4595                	li	a1,5
    80003bde:	86f6                	mv	a3,t4
    80003be0:	0141                	addi	sp,sp,16
    80003be2:	92eff06f          	j	80002d10 <truly_illegal_insn>
    80003be6:	00275313          	srli	t1,a4,0x2
    80003bea:	00737313          	andi	t1,t1,7
    80003bee:	0321                	addi	t1,t1,8
    80003bf0:	031e                	slli	t1,t1,0x7
    80003bf2:	e402                	sd	zero,8(sp)
    80003bf4:	48a1                	li	a7,8
    80003bf6:	4fa1                	li	t6,8
    80003bf8:	4f01                	li	t5,0
    80003bfa:	4e81                	li	t4,0
    80003bfc:	98c2                	add	a7,a7,a6
    80003bfe:	87c2                	mv	a5,a6
    80003c00:	41078733          	sub	a4,a5,a6
    80003c04:	002c                	addi	a1,sp,8
    80003c06:	972e                	add	a4,a4,a1
    80003c08:	0785                	addi	a5,a5,1
    80003c0a:	000205b7          	lui	a1,0x20
    80003c0e:	3005a6f3          	csrrs	a3,mstatus,a1
    80003c12:	fff7c283          	lbu	t0,-1(a5) # dfff <MEM_START-0x7fff2001>
    80003c16:	30069073          	csrw	mstatus,a3
    80003c1a:	00570023          	sb	t0,0(a4)
    80003c1e:	fef891e3          	bne	a7,a5,80003c00 <misaligned_load_trap+0xe8>
    80003c22:	00435313          	srli	t1,t1,0x4
    80003c26:	67a2                	ld	a5,8(sp)
    80003c28:	0f837313          	andi	t1,t1,248
    80003c2c:	020f0163          	beqz	t5,80003c4e <misaligned_load_trap+0x136>
    80003c30:	10030313          	addi	t1,t1,256 # 3100 <MEM_START-0x7fffcf00>
    80003c34:	4721                	li	a4,8
    80003c36:	932a                	add	t1,t1,a0
    80003c38:	04ef8f63          	beq	t6,a4,80003c96 <misaligned_load_trap+0x17e>
    80003c3c:	00f32023          	sw	a5,0(t1)
    80003c40:	6799                	lui	a5,0x6
    80003c42:	3007a7f3          	csrrs	a5,mstatus,a5
    80003c46:	341e1073          	csrw	mepc,t3
    80003c4a:	0141                	addi	sp,sp,16
    80003c4c:	8082                	ret
    80003c4e:	01d797b3          	sll	a5,a5,t4
    80003c52:	932a                	add	t1,t1,a0
    80003c54:	41d7d7b3          	sra	a5,a5,t4
    80003c58:	00f33023          	sd	a5,0(t1)
    80003c5c:	341e1073          	csrw	mepc,t3
    80003c60:	0141                	addi	sp,sp,16
    80003c62:	8082                	ret
    80003c64:	00275313          	srli	t1,a4,0x2
    80003c68:	00737313          	andi	t1,t1,7
    80003c6c:	0321                	addi	t1,t1,8
    80003c6e:	031e                	slli	t1,t1,0x7
    80003c70:	e402                	sd	zero,8(sp)
    80003c72:	4891                	li	a7,4
    80003c74:	4f91                	li	t6,4
    80003c76:	4f01                	li	t5,0
    80003c78:	02000e93          	li	t4,32
    80003c7c:	b741                	j	80003bfc <misaligned_load_trap+0xe4>
    80003c7e:	00275313          	srli	t1,a4,0x2
    80003c82:	00737313          	andi	t1,t1,7
    80003c86:	0321                	addi	t1,t1,8
    80003c88:	031e                	slli	t1,t1,0x7
    80003c8a:	e402                	sd	zero,8(sp)
    80003c8c:	48a1                	li	a7,8
    80003c8e:	4fa1                	li	t6,8
    80003c90:	4f05                	li	t5,1
    80003c92:	4e81                	li	t4,0
    80003c94:	b7a5                	j	80003bfc <misaligned_load_trap+0xe4>
    80003c96:	00f33023          	sd	a5,0(t1)
    80003c9a:	6799                	lui	a5,0x6
    80003c9c:	3007a7f3          	csrrs	a5,mstatus,a5
    80003ca0:	341e1073          	csrw	mepc,t3
    80003ca4:	0141                	addi	sp,sp,16
    80003ca6:	8082                	ret
    80003ca8:	e402                	sd	zero,8(sp)
    80003caa:	4891                	li	a7,4
    80003cac:	4f91                	li	t6,4
    80003cae:	4f01                	li	t5,0
    80003cb0:	4e81                	li	t4,0
    80003cb2:	b7a9                	j	80003bfc <misaligned_load_trap+0xe4>
    80003cb4:	e402                	sd	zero,8(sp)
    80003cb6:	4891                	li	a7,4
    80003cb8:	4f91                	li	t6,4
    80003cba:	4f05                	li	t5,1
    80003cbc:	4e81                	li	t4,0
    80003cbe:	bf3d                	j	80003bfc <misaligned_load_trap+0xe4>
    80003cc0:	e402                	sd	zero,8(sp)
    80003cc2:	4889                	li	a7,2
    80003cc4:	4f89                	li	t6,2
    80003cc6:	4f01                	li	t5,0
    80003cc8:	03000e93          	li	t4,48
    80003ccc:	bf05                	j	80003bfc <misaligned_load_trap+0xe4>
    80003cce:	e402                	sd	zero,8(sp)
    80003cd0:	4889                	li	a7,2
    80003cd2:	4f89                	li	t6,2
    80003cd4:	4f01                	li	t5,0
    80003cd6:	4e81                	li	t4,0
    80003cd8:	b715                	j	80003bfc <misaligned_load_trap+0xe4>
    80003cda:	00775793          	srli	a5,a4,0x7
    80003cde:	8bfd                	andi	a5,a5,31
    80003ce0:	fb89                	bnez	a5,80003bf2 <misaligned_load_trap+0xda>
    80003ce2:	bddd                	j	80003bd8 <misaligned_load_trap+0xc0>
    80003ce4:	00775793          	srli	a5,a4,0x7
    80003ce8:	8bfd                	andi	a5,a5,31
    80003cea:	f3d9                	bnez	a5,80003c70 <misaligned_load_trap+0x158>
    80003cec:	b5f5                	j	80003bd8 <misaligned_load_trap+0xc0>

0000000080003cee <misaligned_store_trap>:
    80003cee:	000a05b7          	lui	a1,0xa0
    80003cf2:	478d                	li	a5,3
    80003cf4:	3005a6f3          	csrrs	a3,mstatus,a1
    80003cf8:	00267813          	andi	a6,a2,2
    80003cfc:	00081b63          	bnez	a6,80003d12 <misaligned_store_trap+0x24>
    80003d00:	00066703          	lwu	a4,0(a2)
    80003d04:	00f77833          	and	a6,a4,a5
    80003d08:	00f80f63          	beq	a6,a5,80003d26 <misaligned_store_trap+0x38>
    80003d0c:	1742                	slli	a4,a4,0x30
    80003d0e:	9341                	srli	a4,a4,0x30
    80003d10:	a819                	j	80003d26 <misaligned_store_trap+0x38>
    80003d12:	00065703          	lhu	a4,0(a2)
    80003d16:	00f77833          	and	a6,a4,a5
    80003d1a:	00f81663          	bne	a6,a5,80003d26 <misaligned_store_trap+0x38>
    80003d1e:	00265803          	lhu	a6,2(a2)
    80003d22:	0842                	slli	a6,a6,0x10
    80003d24:	9742                	add	a4,a4,a6
    80003d26:	30069073          	csrw	mstatus,a3
    80003d2a:	00377593          	andi	a1,a4,3
    80003d2e:	1141                	addi	sp,sp,-16
    80003d30:	8eb6                	mv	t4,a3
    80003d32:	4891                	li	a7,4
    80003d34:	00f58363          	beq	a1,a5,80003d3a <misaligned_store_trap+0x4c>
    80003d38:	4889                	li	a7,2
    80003d3a:	01175593          	srli	a1,a4,0x11
    80003d3e:	0f85f593          	andi	a1,a1,248
    80003d42:	95aa                	add	a1,a1,a0
    80003d44:	619c                	ld	a5,0(a1)
    80003d46:	6809                	lui	a6,0x2
    80003d48:	02380e13          	addi	t3,a6,35 # 2023 <MEM_START-0x7fffdfdd>
    80003d4c:	e43e                	sd	a5,8(sp)
    80003d4e:	679d                	lui	a5,0x7
    80003d50:	07f78793          	addi	a5,a5,127 # 707f <MEM_START-0x7fff8f81>
    80003d54:	8ff9                	and	a5,a5,a4
    80003d56:	01160333          	add	t1,a2,a7
    80003d5a:	0bc78463          	beq	a5,t3,80003e02 <misaligned_store_trap+0x114>
    80003d5e:	688d                	lui	a7,0x3
    80003d60:	02388e13          	addi	t3,a7,35 # 3023 <MEM_START-0x7fffcfdd>
    80003d64:	05c78f63          	beq	a5,t3,80003dc2 <misaligned_store_trap+0xd4>
    80003d68:	02788893          	addi	a7,a7,39
    80003d6c:	0b178263          	beq	a5,a7,80003e10 <misaligned_store_trap+0x122>
    80003d70:	02780813          	addi	a6,a6,39
    80003d74:	09078963          	beq	a5,a6,80003e06 <misaligned_store_trap+0x118>
    80003d78:	6585                	lui	a1,0x1
    80003d7a:	02358593          	addi	a1,a1,35 # 1023 <MEM_START-0x7fffefdd>
    80003d7e:	08b78e63          	beq	a5,a1,80003e1a <misaligned_store_trap+0x12c>
    80003d82:	65b9                	lui	a1,0xe
    80003d84:	00358793          	addi	a5,a1,3 # e003 <MEM_START-0x7fff1ffd>
    80003d88:	8ff9                	and	a5,a5,a4
    80003d8a:	0ab78463          	beq	a5,a1,80003e32 <misaligned_store_trap+0x144>
    80003d8e:	0589                	addi	a1,a1,2
    80003d90:	0ab78b63          	beq	a5,a1,80003e46 <misaligned_store_trap+0x158>
    80003d94:	65b1                	lui	a1,0xc
    80003d96:	08b78463          	beq	a5,a1,80003e1e <misaligned_store_trap+0x130>
    80003d9a:	0589                	addi	a1,a1,2
    80003d9c:	0cb78063          	beq	a5,a1,80003e5c <misaligned_store_trap+0x16e>
    80003da0:	65a9                	lui	a1,0xa
    80003da2:	0eb78363          	beq	a5,a1,80003e88 <misaligned_store_trap+0x19a>
    80003da6:	65a9                	lui	a1,0xa
    80003da8:	0589                	addi	a1,a1,2
    80003daa:	0ab79263          	bne	a5,a1,80003e4e <misaligned_store_trap+0x160>
    80003dae:	00171793          	slli	a5,a4,0x1
    80003db2:	0f87f793          	andi	a5,a5,248
    80003db6:	97aa                	add	a5,a5,a0
    80003db8:	1007b783          	ld	a5,256(a5)
    80003dbc:	48a1                	li	a7,8
    80003dbe:	e43e                	sd	a5,8(sp)
    80003dc0:	a011                	j	80003dc4 <misaligned_store_trap+0xd6>
    80003dc2:	48a1                	li	a7,8
    80003dc4:	34302873          	csrr	a6,mtval
    80003dc8:	38fd                	addiw	a7,a7,-1
    80003dca:	1882                	slli	a7,a7,0x20
    80003dcc:	0208d893          	srli	a7,a7,0x20
    80003dd0:	003c                	addi	a5,sp,8
    80003dd2:	00910713          	addi	a4,sp,9
    80003dd6:	98ba                	add	a7,a7,a4
    80003dd8:	40f80833          	sub	a6,a6,a5
    80003ddc:	0007c703          	lbu	a4,0(a5)
    80003de0:	00f80533          	add	a0,a6,a5
    80003de4:	000205b7          	lui	a1,0x20
    80003de8:	3005a6f3          	csrrs	a3,mstatus,a1
    80003dec:	00e50023          	sb	a4,0(a0) # 7000 <MEM_START-0x7fff9000>
    80003df0:	30069073          	csrw	mstatus,a3
    80003df4:	0785                	addi	a5,a5,1
    80003df6:	fef893e3          	bne	a7,a5,80003ddc <misaligned_store_trap+0xee>
    80003dfa:	34131073          	csrw	mepc,t1
    80003dfe:	0141                	addi	sp,sp,16
    80003e00:	8082                	ret
    80003e02:	4891                	li	a7,4
    80003e04:	b7c1                	j	80003dc4 <misaligned_store_trap+0xd6>
    80003e06:	1005a783          	lw	a5,256(a1) # 20100 <MEM_START-0x7ffdff00>
    80003e0a:	4891                	li	a7,4
    80003e0c:	e43e                	sd	a5,8(sp)
    80003e0e:	bf5d                	j	80003dc4 <misaligned_store_trap+0xd6>
    80003e10:	1005b783          	ld	a5,256(a1)
    80003e14:	48a1                	li	a7,8
    80003e16:	e43e                	sd	a5,8(sp)
    80003e18:	b775                	j	80003dc4 <misaligned_store_trap+0xd6>
    80003e1a:	4889                	li	a7,2
    80003e1c:	b765                	j	80003dc4 <misaligned_store_trap+0xd6>
    80003e1e:	00275793          	srli	a5,a4,0x2
    80003e22:	8b9d                	andi	a5,a5,7
    80003e24:	07a1                	addi	a5,a5,8
    80003e26:	078e                	slli	a5,a5,0x3
    80003e28:	97aa                	add	a5,a5,a0
    80003e2a:	639c                	ld	a5,0(a5)
    80003e2c:	4891                	li	a7,4
    80003e2e:	e43e                	sd	a5,8(sp)
    80003e30:	bf51                	j	80003dc4 <misaligned_store_trap+0xd6>
    80003e32:	00275793          	srli	a5,a4,0x2
    80003e36:	8b9d                	andi	a5,a5,7
    80003e38:	07a1                	addi	a5,a5,8
    80003e3a:	078e                	slli	a5,a5,0x3
    80003e3c:	97aa                	add	a5,a5,a0
    80003e3e:	639c                	ld	a5,0(a5)
    80003e40:	48a1                	li	a7,8
    80003e42:	e43e                	sd	a5,8(sp)
    80003e44:	b741                	j	80003dc4 <misaligned_store_trap+0xd6>
    80003e46:	00775793          	srli	a5,a4,0x7
    80003e4a:	8bfd                	andi	a5,a5,31
    80003e4c:	e78d                	bnez	a5,80003e76 <misaligned_store_trap+0x188>
    80003e4e:	3423d073          	csrwi	mcause,7
    80003e52:	459d                	li	a1,7
    80003e54:	86f6                	mv	a3,t4
    80003e56:	0141                	addi	sp,sp,16
    80003e58:	eb9fe06f          	j	80002d10 <truly_illegal_insn>
    80003e5c:	00775793          	srli	a5,a4,0x7
    80003e60:	8bfd                	andi	a5,a5,31
    80003e62:	d7f5                	beqz	a5,80003e4e <misaligned_store_trap+0x160>
    80003e64:	00171793          	slli	a5,a4,0x1
    80003e68:	0f87f793          	andi	a5,a5,248
    80003e6c:	97aa                	add	a5,a5,a0
    80003e6e:	639c                	ld	a5,0(a5)
    80003e70:	4891                	li	a7,4
    80003e72:	e43e                	sd	a5,8(sp)
    80003e74:	bf81                	j	80003dc4 <misaligned_store_trap+0xd6>
    80003e76:	00171793          	slli	a5,a4,0x1
    80003e7a:	0f87f793          	andi	a5,a5,248
    80003e7e:	97aa                	add	a5,a5,a0
    80003e80:	639c                	ld	a5,0(a5)
    80003e82:	48a1                	li	a7,8
    80003e84:	e43e                	sd	a5,8(sp)
    80003e86:	bf3d                	j	80003dc4 <misaligned_store_trap+0xd6>
    80003e88:	00275793          	srli	a5,a4,0x2
    80003e8c:	8b9d                	andi	a5,a5,7
    80003e8e:	07a1                	addi	a5,a5,8
    80003e90:	078e                	slli	a5,a5,0x3
    80003e92:	97aa                	add	a5,a5,a0
    80003e94:	1007b783          	ld	a5,256(a5)
    80003e98:	48a1                	li	a7,8
    80003e9a:	e43e                	sd	a5,8(sp)
    80003e9c:	b725                	j	80003dc4 <misaligned_store_trap+0xd6>

0000000080003e9e <f32_add>:
    80003e9e:	00b547b3          	xor	a5,a0,a1
    80003ea2:	02079713          	slli	a4,a5,0x20
    80003ea6:	2501                	sext.w	a0,a0
    80003ea8:	2581                	sext.w	a1,a1
    80003eaa:	00001317          	auipc	t1,0x1
    80003eae:	de030313          	addi	t1,t1,-544 # 80004c8a <softfloat_addMagsF32>
    80003eb2:	00075663          	bgez	a4,80003ebe <f32_add+0x20>
    80003eb6:	00002317          	auipc	t1,0x2
    80003eba:	d7c30313          	addi	t1,t1,-644 # 80005c32 <softfloat_subMagsF32>
    80003ebe:	8302                	jr	t1

0000000080003ec0 <f32_div>:
    80003ec0:	7139                	addi	sp,sp,-64
    80003ec2:	008007b7          	lui	a5,0x800
    80003ec6:	17fd                	addi	a5,a5,-1
    80003ec8:	ec4e                	sd	s3,24(sp)
    80003eca:	0175599b          	srliw	s3,a0,0x17
    80003ece:	00a7f733          	and	a4,a5,a0
    80003ed2:	f822                	sd	s0,48(sp)
    80003ed4:	8fed                	and	a5,a5,a1
    80003ed6:	f426                	sd	s1,40(sp)
    80003ed8:	f04a                	sd	s2,32(sp)
    80003eda:	e852                	sd	s4,16(sp)
    80003edc:	00a5c933          	xor	s2,a1,a0
    80003ee0:	0175da1b          	srliw	s4,a1,0x17
    80003ee4:	fc06                	sd	ra,56(sp)
    80003ee6:	0ff9f993          	andi	s3,s3,255
    80003eea:	0ff00693          	li	a3,255
    80003eee:	2501                	sext.w	a0,a0
    80003ef0:	0007049b          	sext.w	s1,a4
    80003ef4:	2581                	sext.w	a1,a1
    80003ef6:	0ffa7a13          	andi	s4,s4,255
    80003efa:	0007841b          	sext.w	s0,a5
    80003efe:	01f9591b          	srliw	s2,s2,0x1f
    80003f02:	04d98663          	beq	s3,a3,80003f4e <f32_div+0x8e>
    80003f06:	02da0863          	beq	s4,a3,80003f36 <f32_div+0x76>
    80003f0a:	060a1963          	bnez	s4,80003f7c <f32_div+0xbc>
    80003f0e:	e025                	bnez	s0,80003f6e <f32_div+0xae>
    80003f10:	0099e733          	or	a4,s3,s1
    80003f14:	c329                	beqz	a4,80003f56 <f32_div+0x96>
    80003f16:	00826213          	ori	tp,tp,8
    80003f1a:	70e2                	ld	ra,56(sp)
    80003f1c:	7442                	ld	s0,48(sp)
    80003f1e:	01f9191b          	slliw	s2,s2,0x1f
    80003f22:	7f800537          	lui	a0,0x7f800
    80003f26:	74a2                	ld	s1,40(sp)
    80003f28:	69e2                	ld	s3,24(sp)
    80003f2a:	6a42                	ld	s4,16(sp)
    80003f2c:	00a9053b          	addw	a0,s2,a0
    80003f30:	7902                	ld	s2,32(sp)
    80003f32:	6121                	addi	sp,sp,64
    80003f34:	8082                	ret
    80003f36:	cc61                	beqz	s0,8000400e <f32_div+0x14e>
    80003f38:	010020ef          	jal	ra,80005f48 <softfloat_propagateNaNF32UI>
    80003f3c:	70e2                	ld	ra,56(sp)
    80003f3e:	7442                	ld	s0,48(sp)
    80003f40:	74a2                	ld	s1,40(sp)
    80003f42:	7902                	ld	s2,32(sp)
    80003f44:	69e2                	ld	s3,24(sp)
    80003f46:	6a42                	ld	s4,16(sp)
    80003f48:	2501                	sext.w	a0,a0
    80003f4a:	6121                	addi	sp,sp,64
    80003f4c:	8082                	ret
    80003f4e:	f4ed                	bnez	s1,80003f38 <f32_div+0x78>
    80003f50:	fd3a15e3          	bne	s4,s3,80003f1a <f32_div+0x5a>
    80003f54:	f075                	bnez	s0,80003f38 <f32_div+0x78>
    80003f56:	01026213          	ori	tp,tp,16
    80003f5a:	70e2                	ld	ra,56(sp)
    80003f5c:	7442                	ld	s0,48(sp)
    80003f5e:	74a2                	ld	s1,40(sp)
    80003f60:	7902                	ld	s2,32(sp)
    80003f62:	69e2                	ld	s3,24(sp)
    80003f64:	6a42                	ld	s4,16(sp)
    80003f66:	7fc00537          	lui	a0,0x7fc00
    80003f6a:	6121                	addi	sp,sp,64
    80003f6c:	8082                	ret
    80003f6e:	8522                	mv	a0,s0
    80003f70:	6ea010ef          	jal	ra,8000565a <softfloat_normSubnormalF32Sig>
    80003f74:	00050a1b          	sext.w	s4,a0
    80003f78:	42055413          	srai	s0,a0,0x20
    80003f7c:	00099a63          	bnez	s3,80003f90 <f32_div+0xd0>
    80003f80:	c4d9                	beqz	s1,8000400e <f32_div+0x14e>
    80003f82:	8526                	mv	a0,s1
    80003f84:	6d6010ef          	jal	ra,8000565a <softfloat_normSubnormalF32Sig>
    80003f88:	0005099b          	sext.w	s3,a0
    80003f8c:	42055493          	srai	s1,a0,0x20
    80003f90:	008007b7          	lui	a5,0x800
    80003f94:	00f4e733          	or	a4,s1,a5
    80003f98:	8fc1                	or	a5,a5,s0
    80003f9a:	414989bb          	subw	s3,s3,s4
    80003f9e:	08f76263          	bltu	a4,a5,80004022 <f32_div+0x162>
    80003fa2:	0077149b          	slliw	s1,a4,0x7
    80003fa6:	07e9899b          	addiw	s3,s3,126
    80003faa:	0087941b          	slliw	s0,a5,0x8
    80003fae:	0004051b          	sext.w	a0,s0
    80003fb2:	717000ef          	jal	ra,80004ec8 <softfloat_approxRecip32_1>
    80003fb6:	1482                	slli	s1,s1,0x20
    80003fb8:	02051793          	slli	a5,a0,0x20
    80003fbc:	9081                	srli	s1,s1,0x20
    80003fbe:	9381                	srli	a5,a5,0x20
    80003fc0:	029787b3          	mul	a5,a5,s1
    80003fc4:	9781                	srai	a5,a5,0x20
    80003fc6:	2789                	addiw	a5,a5,2
    80003fc8:	03e7f713          	andi	a4,a5,62
    80003fcc:	0007861b          	sext.w	a2,a5
    80003fd0:	e705                	bnez	a4,80003ff8 <f32_div+0x138>
    80003fd2:	9bf1                	andi	a5,a5,-4
    80003fd4:	0017971b          	slliw	a4,a5,0x1
    80003fd8:	1702                	slli	a4,a4,0x20
    80003fda:	1402                	slli	s0,s0,0x20
    80003fdc:	9301                	srli	a4,a4,0x20
    80003fde:	9001                	srli	s0,s0,0x20
    80003fe0:	02870433          	mul	s0,a4,s0
    80003fe4:	1482                	slli	s1,s1,0x20
    80003fe6:	0007861b          	sext.w	a2,a5
    80003fea:	40848433          	sub	s0,s1,s0
    80003fee:	02044f63          	bltz	s0,8000402c <f32_div+0x16c>
    80003ff2:	c019                	beqz	s0,80003ff8 <f32_div+0x138>
    80003ff4:	00166613          	ori	a2,a2,1
    80003ff8:	7442                	ld	s0,48(sp)
    80003ffa:	70e2                	ld	ra,56(sp)
    80003ffc:	74a2                	ld	s1,40(sp)
    80003ffe:	6a42                	ld	s4,16(sp)
    80004000:	85ce                	mv	a1,s3
    80004002:	854a                	mv	a0,s2
    80004004:	69e2                	ld	s3,24(sp)
    80004006:	7902                	ld	s2,32(sp)
    80004008:	6121                	addi	sp,sp,64
    8000400a:	7140106f          	j	8000571e <softfloat_roundPackToF32>
    8000400e:	70e2                	ld	ra,56(sp)
    80004010:	7442                	ld	s0,48(sp)
    80004012:	74a2                	ld	s1,40(sp)
    80004014:	69e2                	ld	s3,24(sp)
    80004016:	6a42                	ld	s4,16(sp)
    80004018:	01f9151b          	slliw	a0,s2,0x1f
    8000401c:	7902                	ld	s2,32(sp)
    8000401e:	6121                	addi	sp,sp,64
    80004020:	8082                	ret
    80004022:	0087149b          	slliw	s1,a4,0x8
    80004026:	07d9899b          	addiw	s3,s3,125
    8000402a:	b741                	j	80003faa <f32_div+0xea>
    8000402c:	3671                	addiw	a2,a2,-4
    8000402e:	b7e9                	j	80003ff8 <f32_div+0x138>

0000000080004030 <f32_eq>:
    80004030:	87aa                	mv	a5,a0
    80004032:	7f8006b7          	lui	a3,0x7f800
    80004036:	fff7c713          	not	a4,a5
    8000403a:	8f75                	and	a4,a4,a3
    8000403c:	0005061b          	sext.w	a2,a0
    80004040:	0005869b          	sext.w	a3,a1
    80004044:	e701                	bnez	a4,8000404c <f32_eq+0x1c>
    80004046:	02979713          	slli	a4,a5,0x29
    8000404a:	e705                	bnez	a4,80004072 <f32_eq+0x42>
    8000404c:	fff5c713          	not	a4,a1
    80004050:	7f800537          	lui	a0,0x7f800
    80004054:	8f69                	and	a4,a4,a0
    80004056:	e701                	bnez	a4,8000405e <f32_eq+0x2e>
    80004058:	02959713          	slli	a4,a1,0x29
    8000405c:	eb19                	bnez	a4,80004072 <f32_eq+0x42>
    8000405e:	4505                	li	a0,1
    80004060:	00d60863          	beq	a2,a3,80004070 <f32_eq+0x40>
    80004064:	00b7e533          	or	a0,a5,a1
    80004068:	0015151b          	slliw	a0,a0,0x1
    8000406c:	00153513          	seqz	a0,a0
    80004070:	8082                	ret
    80004072:	7fc00737          	lui	a4,0x7fc00
    80004076:	8f7d                	and	a4,a4,a5
    80004078:	7f8006b7          	lui	a3,0x7f800
    8000407c:	02d70063          	beq	a4,a3,8000409c <f32_eq+0x6c>
    80004080:	7fc007b7          	lui	a5,0x7fc00
    80004084:	8fed                	and	a5,a5,a1
    80004086:	7f800737          	lui	a4,0x7f800
    8000408a:	4501                	li	a0,0
    8000408c:	fee792e3          	bne	a5,a4,80004070 <f32_eq+0x40>
    80004090:	15aa                	slli	a1,a1,0x2a
    80004092:	ddf9                	beqz	a1,80004070 <f32_eq+0x40>
    80004094:	01026213          	ori	tp,tp,16
    80004098:	4501                	li	a0,0
    8000409a:	8082                	ret
    8000409c:	02a79713          	slli	a4,a5,0x2a
    800040a0:	fb75                	bnez	a4,80004094 <f32_eq+0x64>
    800040a2:	bff9                	j	80004080 <f32_eq+0x50>

00000000800040a4 <f32_lt>:
    800040a4:	87aa                	mv	a5,a0
    800040a6:	7f8006b7          	lui	a3,0x7f800
    800040aa:	fff7c713          	not	a4,a5
    800040ae:	8f75                	and	a4,a4,a3
    800040b0:	0005881b          	sext.w	a6,a1
    800040b4:	0005069b          	sext.w	a3,a0
    800040b8:	e701                	bnez	a4,800040c0 <f32_lt+0x1c>
    800040ba:	02979713          	slli	a4,a5,0x29
    800040be:	ef05                	bnez	a4,800040f6 <f32_lt+0x52>
    800040c0:	fff5c713          	not	a4,a1
    800040c4:	7f800637          	lui	a2,0x7f800
    800040c8:	8f71                	and	a4,a4,a2
    800040ca:	e701                	bnez	a4,800040d2 <f32_lt+0x2e>
    800040cc:	02959713          	slli	a4,a1,0x29
    800040d0:	e31d                	bnez	a4,800040f6 <f32_lt+0x52>
    800040d2:	01f7d71b          	srliw	a4,a5,0x1f
    800040d6:	01f5d61b          	srliw	a2,a1,0x1f
    800040da:	4501                	li	a0,0
    800040dc:	00c70563          	beq	a4,a2,800040e6 <f32_lt+0x42>
    800040e0:	0006cf63          	bltz	a3,800040fe <f32_lt+0x5a>
    800040e4:	8082                	ret
    800040e6:	ff068fe3          	beq	a3,a6,800040e4 <f32_lt+0x40>
    800040ea:	0106b533          	sltu	a0,a3,a6
    800040ee:	8d19                	sub	a0,a0,a4
    800040f0:	00a03533          	snez	a0,a0
    800040f4:	8082                	ret
    800040f6:	01026213          	ori	tp,tp,16
    800040fa:	4501                	li	a0,0
    800040fc:	8082                	ret
    800040fe:	00b7e533          	or	a0,a5,a1
    80004102:	0015151b          	slliw	a0,a0,0x1
    80004106:	00a03533          	snez	a0,a0
    8000410a:	8082                	ret

000000008000410c <f32_lt_quiet>:
    8000410c:	87aa                	mv	a5,a0
    8000410e:	7f8006b7          	lui	a3,0x7f800
    80004112:	fff7c713          	not	a4,a5
    80004116:	8f75                	and	a4,a4,a3
    80004118:	0005881b          	sext.w	a6,a1
    8000411c:	0005069b          	sext.w	a3,a0
    80004120:	e701                	bnez	a4,80004128 <f32_lt_quiet+0x1c>
    80004122:	02979713          	slli	a4,a5,0x29
    80004126:	ef05                	bnez	a4,8000415e <f32_lt_quiet+0x52>
    80004128:	fff5c713          	not	a4,a1
    8000412c:	7f800637          	lui	a2,0x7f800
    80004130:	8f71                	and	a4,a4,a2
    80004132:	e701                	bnez	a4,8000413a <f32_lt_quiet+0x2e>
    80004134:	02959713          	slli	a4,a1,0x29
    80004138:	e31d                	bnez	a4,8000415e <f32_lt_quiet+0x52>
    8000413a:	01f7d71b          	srliw	a4,a5,0x1f
    8000413e:	01f5d61b          	srliw	a2,a1,0x1f
    80004142:	4501                	li	a0,0
    80004144:	00c70563          	beq	a4,a2,8000414e <f32_lt_quiet+0x42>
    80004148:	0406c063          	bltz	a3,80004188 <f32_lt_quiet+0x7c>
    8000414c:	8082                	ret
    8000414e:	ff068fe3          	beq	a3,a6,8000414c <f32_lt_quiet+0x40>
    80004152:	0106b533          	sltu	a0,a3,a6
    80004156:	8d19                	sub	a0,a0,a4
    80004158:	00a03533          	snez	a0,a0
    8000415c:	8082                	ret
    8000415e:	7fc00737          	lui	a4,0x7fc00
    80004162:	8f7d                	and	a4,a4,a5
    80004164:	7f8006b7          	lui	a3,0x7f800
    80004168:	02d70763          	beq	a4,a3,80004196 <f32_lt_quiet+0x8a>
    8000416c:	7fc007b7          	lui	a5,0x7fc00
    80004170:	8fed                	and	a5,a5,a1
    80004172:	7f800737          	lui	a4,0x7f800
    80004176:	4501                	li	a0,0
    80004178:	fce79ae3          	bne	a5,a4,8000414c <f32_lt_quiet+0x40>
    8000417c:	15aa                	slli	a1,a1,0x2a
    8000417e:	d5f9                	beqz	a1,8000414c <f32_lt_quiet+0x40>
    80004180:	01026213          	ori	tp,tp,16
    80004184:	4501                	li	a0,0
    80004186:	8082                	ret
    80004188:	00b7e533          	or	a0,a5,a1
    8000418c:	0015151b          	slliw	a0,a0,0x1
    80004190:	00a03533          	snez	a0,a0
    80004194:	8082                	ret
    80004196:	02a79713          	slli	a4,a5,0x2a
    8000419a:	f37d                	bnez	a4,80004180 <f32_lt_quiet+0x74>
    8000419c:	bfc1                	j	8000416c <f32_lt_quiet+0x60>

000000008000419e <f32_mul>:
    8000419e:	7139                	addi	sp,sp,-64
    800041a0:	008007b7          	lui	a5,0x800
    800041a4:	17fd                	addi	a5,a5,-1
    800041a6:	f426                	sd	s1,40(sp)
    800041a8:	0175549b          	srliw	s1,a0,0x17
    800041ac:	00a5c6b3          	xor	a3,a1,a0
    800041b0:	f822                	sd	s0,48(sp)
    800041b2:	f04a                	sd	s2,32(sp)
    800041b4:	ec4e                	sd	s3,24(sp)
    800041b6:	00a7f933          	and	s2,a5,a0
    800041ba:	0175d99b          	srliw	s3,a1,0x17
    800041be:	8fed                	and	a5,a5,a1
    800041c0:	e852                	sd	s4,16(sp)
    800041c2:	fc06                	sd	ra,56(sp)
    800041c4:	0ff4f493          	andi	s1,s1,255
    800041c8:	0ff00713          	li	a4,255
    800041cc:	2501                	sext.w	a0,a0
    800041ce:	2901                	sext.w	s2,s2
    800041d0:	2581                	sext.w	a1,a1
    800041d2:	0ff9f993          	andi	s3,s3,255
    800041d6:	0007841b          	sext.w	s0,a5
    800041da:	01f6da1b          	srliw	s4,a3,0x1f
    800041de:	02e48f63          	beq	s1,a4,8000421c <f32_mul+0x7e>
    800041e2:	00e98f63          	beq	s3,a4,80004200 <f32_mul+0x62>
    800041e6:	e4ad                	bnez	s1,80004250 <f32_mul+0xb2>
    800041e8:	04091d63          	bnez	s2,80004242 <f32_mul+0xa4>
    800041ec:	70e2                	ld	ra,56(sp)
    800041ee:	7442                	ld	s0,48(sp)
    800041f0:	74a2                	ld	s1,40(sp)
    800041f2:	7902                	ld	s2,32(sp)
    800041f4:	69e2                	ld	s3,24(sp)
    800041f6:	01fa151b          	slliw	a0,s4,0x1f
    800041fa:	6a42                	ld	s4,16(sp)
    800041fc:	6121                	addi	sp,sp,64
    800041fe:	8082                	ret
    80004200:	0124e4b3          	or	s1,s1,s2
    80004204:	c015                	beqz	s0,80004228 <f32_mul+0x8a>
    80004206:	543010ef          	jal	ra,80005f48 <softfloat_propagateNaNF32UI>
    8000420a:	70e2                	ld	ra,56(sp)
    8000420c:	7442                	ld	s0,48(sp)
    8000420e:	74a2                	ld	s1,40(sp)
    80004210:	7902                	ld	s2,32(sp)
    80004212:	69e2                	ld	s3,24(sp)
    80004214:	6a42                	ld	s4,16(sp)
    80004216:	2501                	sext.w	a0,a0
    80004218:	6121                	addi	sp,sp,64
    8000421a:	8082                	ret
    8000421c:	fe0915e3          	bnez	s2,80004206 <f32_mul+0x68>
    80004220:	0a998863          	beq	s3,s1,800042d0 <f32_mul+0x132>
    80004224:	0089e4b3          	or	s1,s3,s0
    80004228:	e4d9                	bnez	s1,800042b6 <f32_mul+0x118>
    8000422a:	01026213          	ori	tp,tp,16
    8000422e:	70e2                	ld	ra,56(sp)
    80004230:	7442                	ld	s0,48(sp)
    80004232:	74a2                	ld	s1,40(sp)
    80004234:	7902                	ld	s2,32(sp)
    80004236:	69e2                	ld	s3,24(sp)
    80004238:	6a42                	ld	s4,16(sp)
    8000423a:	7fc00537          	lui	a0,0x7fc00
    8000423e:	6121                	addi	sp,sp,64
    80004240:	8082                	ret
    80004242:	854a                	mv	a0,s2
    80004244:	416010ef          	jal	ra,8000565a <softfloat_normSubnormalF32Sig>
    80004248:	0005049b          	sext.w	s1,a0
    8000424c:	42055913          	srai	s2,a0,0x20
    80004250:	00099a63          	bnez	s3,80004264 <f32_mul+0xc6>
    80004254:	dc41                	beqz	s0,800041ec <f32_mul+0x4e>
    80004256:	8522                	mv	a0,s0
    80004258:	402010ef          	jal	ra,8000565a <softfloat_normSubnormalF32Sig>
    8000425c:	0005099b          	sext.w	s3,a0
    80004260:	42055413          	srai	s0,a0,0x20
    80004264:	0079151b          	slliw	a0,s2,0x7
    80004268:	0084171b          	slliw	a4,s0,0x8
    8000426c:	40000937          	lui	s2,0x40000
    80004270:	80000437          	lui	s0,0x80000
    80004274:	01256533          	or	a0,a0,s2
    80004278:	8f41                	or	a4,a4,s0
    8000427a:	1502                	slli	a0,a0,0x20
    8000427c:	1702                	slli	a4,a4,0x20
    8000427e:	9301                	srli	a4,a4,0x20
    80004280:	9101                	srli	a0,a0,0x20
    80004282:	02e50533          	mul	a0,a0,a4
    80004286:	02000593          	li	a1,32
    8000428a:	013484bb          	addw	s1,s1,s3
    8000428e:	0cb010ef          	jal	ra,80005b58 <softfloat_shortShiftRightJam64>
    80004292:	0005061b          	sext.w	a2,a0
    80004296:	400007b7          	lui	a5,0x40000
    8000429a:	02f66f63          	bltu	a2,a5,800042d8 <f32_mul+0x13a>
    8000429e:	f814859b          	addiw	a1,s1,-127
    800042a2:	7442                	ld	s0,48(sp)
    800042a4:	70e2                	ld	ra,56(sp)
    800042a6:	74a2                	ld	s1,40(sp)
    800042a8:	7902                	ld	s2,32(sp)
    800042aa:	69e2                	ld	s3,24(sp)
    800042ac:	8552                	mv	a0,s4
    800042ae:	6a42                	ld	s4,16(sp)
    800042b0:	6121                	addi	sp,sp,64
    800042b2:	46c0106f          	j	8000571e <softfloat_roundPackToF32>
    800042b6:	70e2                	ld	ra,56(sp)
    800042b8:	7442                	ld	s0,48(sp)
    800042ba:	01fa151b          	slliw	a0,s4,0x1f
    800042be:	7f8007b7          	lui	a5,0x7f800
    800042c2:	74a2                	ld	s1,40(sp)
    800042c4:	7902                	ld	s2,32(sp)
    800042c6:	69e2                	ld	s3,24(sp)
    800042c8:	6a42                	ld	s4,16(sp)
    800042ca:	9d3d                	addw	a0,a0,a5
    800042cc:	6121                	addi	sp,sp,64
    800042ce:	8082                	ret
    800042d0:	f81d                	bnez	s0,80004206 <f32_mul+0x68>
    800042d2:	0089e4b3          	or	s1,s3,s0
    800042d6:	bf89                	j	80004228 <f32_mul+0x8a>
    800042d8:	0016161b          	slliw	a2,a2,0x1
    800042dc:	f804859b          	addiw	a1,s1,-128
    800042e0:	b7c9                	j	800042a2 <f32_mul+0x104>

00000000800042e2 <f32_sqrt>:
    800042e2:	7179                	addi	sp,sp,-48
    800042e4:	0175579b          	srliw	a5,a0,0x17
    800042e8:	02951593          	slli	a1,a0,0x29
    800042ec:	f406                	sd	ra,40(sp)
    800042ee:	f022                	sd	s0,32(sp)
    800042f0:	ec26                	sd	s1,24(sp)
    800042f2:	e84a                	sd	s2,16(sp)
    800042f4:	0ff7f793          	andi	a5,a5,255
    800042f8:	0ff00713          	li	a4,255
    800042fc:	0005069b          	sext.w	a3,a0
    80004300:	91a5                	srli	a1,a1,0x29
    80004302:	02e78863          	beq	a5,a4,80004332 <f32_sqrt+0x50>
    80004306:	0006ca63          	bltz	a3,8000431a <f32_sqrt+0x38>
    8000430a:	e7a1                	bnez	a5,80004352 <f32_sqrt+0x70>
    8000430c:	ed85                	bnez	a1,80004344 <f32_sqrt+0x62>
    8000430e:	70a2                	ld	ra,40(sp)
    80004310:	7402                	ld	s0,32(sp)
    80004312:	64e2                	ld	s1,24(sp)
    80004314:	6942                	ld	s2,16(sp)
    80004316:	6145                	addi	sp,sp,48
    80004318:	8082                	ret
    8000431a:	8ddd                	or	a1,a1,a5
    8000431c:	d9ed                	beqz	a1,8000430e <f32_sqrt+0x2c>
    8000431e:	01026213          	ori	tp,tp,16
    80004322:	70a2                	ld	ra,40(sp)
    80004324:	7402                	ld	s0,32(sp)
    80004326:	64e2                	ld	s1,24(sp)
    80004328:	6942                	ld	s2,16(sp)
    8000432a:	7fc00537          	lui	a0,0x7fc00
    8000432e:	6145                	addi	sp,sp,48
    80004330:	8082                	ret
    80004332:	e5d9                	bnez	a1,800043c0 <f32_sqrt+0xde>
    80004334:	fe06c5e3          	bltz	a3,8000431e <f32_sqrt+0x3c>
    80004338:	70a2                	ld	ra,40(sp)
    8000433a:	7402                	ld	s0,32(sp)
    8000433c:	64e2                	ld	s1,24(sp)
    8000433e:	6942                	ld	s2,16(sp)
    80004340:	6145                	addi	sp,sp,48
    80004342:	8082                	ret
    80004344:	852e                	mv	a0,a1
    80004346:	314010ef          	jal	ra,8000565a <softfloat_normSubnormalF32Sig>
    8000434a:	0005079b          	sext.w	a5,a0
    8000434e:	42055593          	srai	a1,a0,0x20
    80004352:	0085941b          	slliw	s0,a1,0x8
    80004356:	800005b7          	lui	a1,0x80000
    8000435a:	8c4d                	or	s0,s0,a1
    8000435c:	2401                	sext.w	s0,s0
    8000435e:	0017f513          	andi	a0,a5,1
    80004362:	85a2                	mv	a1,s0
    80004364:	f817891b          	addiw	s2,a5,-127
    80004368:	84aa                	mv	s1,a0
    8000436a:	3d1000ef          	jal	ra,80004f3a <softfloat_approxRecipSqrt32_1>
    8000436e:	1402                	slli	s0,s0,0x20
    80004370:	02051793          	slli	a5,a0,0x20
    80004374:	9001                	srli	s0,s0,0x20
    80004376:	9381                	srli	a5,a5,0x20
    80004378:	02f407b3          	mul	a5,s0,a5
    8000437c:	4019591b          	sraiw	s2,s2,0x1
    80004380:	07e9091b          	addiw	s2,s2,126
    80004384:	9781                	srai	a5,a5,0x20
    80004386:	c099                	beqz	s1,8000438c <f32_sqrt+0xaa>
    80004388:	0017d79b          	srliw	a5,a5,0x1
    8000438c:	2789                	addiw	a5,a5,2
    8000438e:	03e7f713          	andi	a4,a5,62
    80004392:	0007861b          	sext.w	a2,a5
    80004396:	ef01                	bnez	a4,800043ae <f32_sqrt+0xcc>
    80004398:	0027d71b          	srliw	a4,a5,0x2
    8000439c:	02e7073b          	mulw	a4,a4,a4
    800043a0:	9bf1                	andi	a5,a5,-4
    800043a2:	0007861b          	sext.w	a2,a5
    800043a6:	02074363          	bltz	a4,800043cc <f32_sqrt+0xea>
    800043aa:	c311                	beqz	a4,800043ae <f32_sqrt+0xcc>
    800043ac:	367d                	addiw	a2,a2,-1
    800043ae:	7402                	ld	s0,32(sp)
    800043b0:	70a2                	ld	ra,40(sp)
    800043b2:	64e2                	ld	s1,24(sp)
    800043b4:	85ca                	mv	a1,s2
    800043b6:	6942                	ld	s2,16(sp)
    800043b8:	4501                	li	a0,0
    800043ba:	6145                	addi	sp,sp,48
    800043bc:	3620106f          	j	8000571e <softfloat_roundPackToF32>
    800043c0:	4581                	li	a1,0
    800043c2:	8536                	mv	a0,a3
    800043c4:	385010ef          	jal	ra,80005f48 <softfloat_propagateNaNF32UI>
    800043c8:	2501                	sext.w	a0,a0
    800043ca:	b791                	j	8000430e <f32_sqrt+0x2c>
    800043cc:	00166613          	ori	a2,a2,1
    800043d0:	bff9                	j	800043ae <f32_sqrt+0xcc>

00000000800043d2 <f32_to_f64>:
    800043d2:	1101                	addi	sp,sp,-32
    800043d4:	86aa                	mv	a3,a0
    800043d6:	0175579b          	srliw	a5,a0,0x17
    800043da:	e822                	sd	s0,16(sp)
    800043dc:	02969713          	slli	a4,a3,0x29
    800043e0:	ec06                	sd	ra,24(sp)
    800043e2:	0ff7f793          	andi	a5,a5,255
    800043e6:	0ff00613          	li	a2,255
    800043ea:	01f5541b          	srliw	s0,a0,0x1f
    800043ee:	02975513          	srli	a0,a4,0x29
    800043f2:	02c78863          	beq	a5,a2,80004422 <f32_to_f64+0x50>
    800043f6:	147e                	slli	s0,s0,0x3f
    800043f8:	cf91                	beqz	a5,80004414 <f32_to_f64+0x42>
    800043fa:	1502                	slli	a0,a0,0x20
    800043fc:	9101                	srli	a0,a0,0x20
    800043fe:	3807879b          	addiw	a5,a5,896
    80004402:	0576                	slli	a0,a0,0x1d
    80004404:	17d2                	slli	a5,a5,0x34
    80004406:	942a                	add	s0,s0,a0
    80004408:	943e                	add	s0,s0,a5
    8000440a:	60e2                	ld	ra,24(sp)
    8000440c:	8522                	mv	a0,s0
    8000440e:	6442                	ld	s0,16(sp)
    80004410:	6105                	addi	sp,sp,32
    80004412:	8082                	ret
    80004414:	d97d                	beqz	a0,8000440a <f32_to_f64+0x38>
    80004416:	244010ef          	jal	ra,8000565a <softfloat_normSubnormalF32Sig>
    8000441a:	fff5079b          	addiw	a5,a0,-1
    8000441e:	9501                	srai	a0,a0,0x20
    80004420:	bfe9                	j	800043fa <f32_to_f64+0x28>
    80004422:	c919                	beqz	a0,80004438 <f32_to_f64+0x66>
    80004424:	02969793          	slli	a5,a3,0x29
    80004428:	0207c263          	bltz	a5,8000444c <f32_to_f64+0x7a>
    8000442c:	01026213          	ori	tp,tp,16
    80004430:	00fff437          	lui	s0,0xfff
    80004434:	141e                	slli	s0,s0,0x27
    80004436:	bfd1                	j	8000440a <f32_to_f64+0x38>
    80004438:	7ff00513          	li	a0,2047
    8000443c:	1552                	slli	a0,a0,0x34
    8000443e:	147e                	slli	s0,s0,0x3f
    80004440:	942a                	add	s0,s0,a0
    80004442:	60e2                	ld	ra,24(sp)
    80004444:	8522                	mv	a0,s0
    80004446:	6442                	ld	s0,16(sp)
    80004448:	6105                	addi	sp,sp,32
    8000444a:	8082                	ret
    8000444c:	00fff437          	lui	s0,0xfff
    80004450:	141e                	slli	s0,s0,0x27
    80004452:	bf65                	j	8000440a <f32_to_f64+0x38>

0000000080004454 <f32_classify>:
    80004454:	0175579b          	srliw	a5,a0,0x17
    80004458:	02051713          	slli	a4,a0,0x20
    8000445c:	0ff7f793          	andi	a5,a5,255
    80004460:	04074c63          	bltz	a4,800044b8 <f32_classify+0x64>
    80004464:	0ff00713          	li	a4,255
    80004468:	04e78263          	beq	a5,a4,800044ac <f32_classify+0x58>
    8000446c:	c7d1                	beqz	a5,800044f8 <f32_classify+0xa4>
    8000446e:	04000793          	li	a5,64
    80004472:	fff54713          	not	a4,a0
    80004476:	7f8006b7          	lui	a3,0x7f800
    8000447a:	8f75                	and	a4,a4,a3
    8000447c:	e70d                	bnez	a4,800044a6 <f32_classify+0x52>
    8000447e:	02951713          	slli	a4,a0,0x29
    80004482:	c315                	beqz	a4,800044a6 <f32_classify+0x52>
    80004484:	7fc00737          	lui	a4,0x7fc00
    80004488:	8f69                	and	a4,a4,a0
    8000448a:	7f8006b7          	lui	a3,0x7f800
    8000448e:	04d70263          	beq	a4,a3,800044d2 <f32_classify+0x7e>
    80004492:	7fc00737          	lui	a4,0x7fc00
    80004496:	8f69                	and	a4,a4,a0
    80004498:	7f8006b7          	lui	a3,0x7f800
    8000449c:	04d70163          	beq	a4,a3,800044de <f32_classify+0x8a>
    800044a0:	2007e793          	ori	a5,a5,512
    800044a4:	2781                	sext.w	a5,a5
    800044a6:	0007851b          	sext.w	a0,a5
    800044aa:	8082                	ret
    800044ac:	02951793          	slli	a5,a0,0x29
    800044b0:	0017b793          	seqz	a5,a5
    800044b4:	079e                	slli	a5,a5,0x7
    800044b6:	bf75                	j	80004472 <f32_classify+0x1e>
    800044b8:	0ff00713          	li	a4,255
    800044bc:	02e78963          	beq	a5,a4,800044ee <f32_classify+0x9a>
    800044c0:	c399                	beqz	a5,800044c6 <f32_classify+0x72>
    800044c2:	4789                	li	a5,2
    800044c4:	b77d                	j	80004472 <f32_classify+0x1e>
    800044c6:	02951713          	slli	a4,a0,0x29
    800044ca:	47a1                	li	a5,8
    800044cc:	d35d                	beqz	a4,80004472 <f32_classify+0x1e>
    800044ce:	4791                	li	a5,4
    800044d0:	b74d                	j	80004472 <f32_classify+0x1e>
    800044d2:	02a51713          	slli	a4,a0,0x2a
    800044d6:	df55                	beqz	a4,80004492 <f32_classify+0x3e>
    800044d8:	1007e793          	ori	a5,a5,256
    800044dc:	2781                	sext.w	a5,a5
    800044de:	152a                	slli	a0,a0,0x2a
    800044e0:	00153513          	seqz	a0,a0
    800044e4:	0095151b          	slliw	a0,a0,0x9
    800044e8:	8fc9                	or	a5,a5,a0
    800044ea:	2781                	sext.w	a5,a5
    800044ec:	bf6d                	j	800044a6 <f32_classify+0x52>
    800044ee:	02951793          	slli	a5,a0,0x29
    800044f2:	0017b793          	seqz	a5,a5
    800044f6:	bfb5                	j	80004472 <f32_classify+0x1e>
    800044f8:	02951693          	slli	a3,a0,0x29
    800044fc:	4781                	li	a5,0
    800044fe:	0296d713          	srli	a4,a3,0x29
    80004502:	c299                	beqz	a3,80004508 <f32_classify+0xb4>
    80004504:	0207e793          	ori	a5,a5,32
    80004508:	00173713          	seqz	a4,a4
    8000450c:	0047171b          	slliw	a4,a4,0x4
    80004510:	8fd9                	or	a5,a5,a4
    80004512:	b785                	j	80004472 <f32_classify+0x1e>

0000000080004514 <f64_add>:
    80004514:	03f55613          	srli	a2,a0,0x3f
    80004518:	03f5d793          	srli	a5,a1,0x3f
    8000451c:	00002317          	auipc	t1,0x2
    80004520:	89e30313          	addi	t1,t1,-1890 # 80005dba <softfloat_subMagsF64>
    80004524:	00f61663          	bne	a2,a5,80004530 <f64_add+0x1c>
    80004528:	00001317          	auipc	t1,0x1
    8000452c:	89c30313          	addi	t1,t1,-1892 # 80004dc4 <softfloat_addMagsF64>
    80004530:	8302                	jr	t1

0000000080004532 <f64_div>:
    80004532:	7139                	addi	sp,sp,-64
    80004534:	f04a                	sd	s2,32(sp)
    80004536:	57fd                	li	a5,-1
    80004538:	03455913          	srli	s2,a0,0x34
    8000453c:	83b1                	srli	a5,a5,0xc
    8000453e:	f822                	sd	s0,48(sp)
    80004540:	f426                	sd	s1,40(sp)
    80004542:	ec4e                	sd	s3,24(sp)
    80004544:	e852                	sd	s4,16(sp)
    80004546:	00a5c4b3          	xor	s1,a1,a0
    8000454a:	0345da13          	srli	s4,a1,0x34
    8000454e:	fc06                	sd	ra,56(sp)
    80004550:	7ff97913          	andi	s2,s2,2047
    80004554:	7ff00713          	li	a4,2047
    80004558:	00f579b3          	and	s3,a0,a5
    8000455c:	7ffa7a13          	andi	s4,s4,2047
    80004560:	00f5f433          	and	s0,a1,a5
    80004564:	90fd                	srli	s1,s1,0x3f
    80004566:	04e90663          	beq	s2,a4,800045b2 <f64_div+0x80>
    8000456a:	02ea0863          	beq	s4,a4,8000459a <f64_div+0x68>
    8000456e:	060a1a63          	bnez	s4,800045e2 <f64_div+0xb0>
    80004572:	e035                	bnez	s0,800045d6 <f64_div+0xa4>
    80004574:	01396933          	or	s2,s2,s3
    80004578:	04090263          	beqz	s2,800045bc <f64_div+0x8a>
    8000457c:	00826213          	ori	tp,tp,8
    80004580:	70e2                	ld	ra,56(sp)
    80004582:	7442                	ld	s0,48(sp)
    80004584:	7ff00513          	li	a0,2047
    80004588:	14fe                	slli	s1,s1,0x3f
    8000458a:	1552                	slli	a0,a0,0x34
    8000458c:	7902                	ld	s2,32(sp)
    8000458e:	69e2                	ld	s3,24(sp)
    80004590:	6a42                	ld	s4,16(sp)
    80004592:	9526                	add	a0,a0,s1
    80004594:	74a2                	ld	s1,40(sp)
    80004596:	6121                	addi	sp,sp,64
    80004598:	8082                	ret
    8000459a:	10040c63          	beqz	s0,800046b2 <f64_div+0x180>
    8000459e:	1e5010ef          	jal	ra,80005f82 <softfloat_propagateNaNF64UI>
    800045a2:	70e2                	ld	ra,56(sp)
    800045a4:	7442                	ld	s0,48(sp)
    800045a6:	74a2                	ld	s1,40(sp)
    800045a8:	7902                	ld	s2,32(sp)
    800045aa:	69e2                	ld	s3,24(sp)
    800045ac:	6a42                	ld	s4,16(sp)
    800045ae:	6121                	addi	sp,sp,64
    800045b0:	8082                	ret
    800045b2:	fe0996e3          	bnez	s3,8000459e <f64_div+0x6c>
    800045b6:	fd2a15e3          	bne	s4,s2,80004580 <f64_div+0x4e>
    800045ba:	f075                	bnez	s0,8000459e <f64_div+0x6c>
    800045bc:	01026213          	ori	tp,tp,16
    800045c0:	70e2                	ld	ra,56(sp)
    800045c2:	7442                	ld	s0,48(sp)
    800045c4:	00fff537          	lui	a0,0xfff
    800045c8:	74a2                	ld	s1,40(sp)
    800045ca:	7902                	ld	s2,32(sp)
    800045cc:	69e2                	ld	s3,24(sp)
    800045ce:	6a42                	ld	s4,16(sp)
    800045d0:	151e                	slli	a0,a0,0x27
    800045d2:	6121                	addi	sp,sp,64
    800045d4:	8082                	ret
    800045d6:	8522                	mv	a0,s0
    800045d8:	0aa010ef          	jal	ra,80005682 <softfloat_normSubnormalF64Sig>
    800045dc:	00050a1b          	sext.w	s4,a0
    800045e0:	842e                	mv	s0,a1
    800045e2:	00091a63          	bnez	s2,800045f6 <f64_div+0xc4>
    800045e6:	0c098663          	beqz	s3,800046b2 <f64_div+0x180>
    800045ea:	854e                	mv	a0,s3
    800045ec:	096010ef          	jal	ra,80005682 <softfloat_normSubnormalF64Sig>
    800045f0:	0005091b          	sext.w	s2,a0
    800045f4:	89ae                	mv	s3,a1
    800045f6:	4785                	li	a5,1
    800045f8:	17d2                	slli	a5,a5,0x34
    800045fa:	00f9e9b3          	or	s3,s3,a5
    800045fe:	8c5d                	or	s0,s0,a5
    80004600:	4149093b          	subw	s2,s2,s4
    80004604:	0c89e163          	bltu	s3,s0,800046c6 <f64_div+0x194>
    80004608:	3fe9091b          	addiw	s2,s2,1022
    8000460c:	09aa                	slli	s3,s3,0xa
    8000460e:	042e                	slli	s0,s0,0xb
    80004610:	42045513          	srai	a0,s0,0x20
    80004614:	0b5000ef          	jal	ra,80004ec8 <softfloat_approxRecip32_1>
    80004618:	ffe5079b          	addiw	a5,a0,-2
    8000461c:	02079513          	slli	a0,a5,0x20
    80004620:	9101                	srli	a0,a0,0x20
    80004622:	0209d613          	srli	a2,s3,0x20
    80004626:	02a60633          	mul	a2,a2,a0
    8000462a:	02045693          	srli	a3,s0,0x20
    8000462e:	0044541b          	srliw	s0,s0,0x4
    80004632:	1402                	slli	s0,s0,0x20
    80004634:	9001                	srli	s0,s0,0x20
    80004636:	02065713          	srli	a4,a2,0x20
    8000463a:	0017171b          	slliw	a4,a4,0x1
    8000463e:	1702                	slli	a4,a4,0x20
    80004640:	9301                	srli	a4,a4,0x20
    80004642:	02e687b3          	mul	a5,a3,a4
    80004646:	9201                	srli	a2,a2,0x20
    80004648:	1602                	slli	a2,a2,0x20
    8000464a:	02870733          	mul	a4,a4,s0
    8000464e:	40f989b3          	sub	s3,s3,a5
    80004652:	09f2                	slli	s3,s3,0x1c
    80004654:	40e989b3          	sub	s3,s3,a4
    80004658:	0209d793          	srli	a5,s3,0x20
    8000465c:	02a787b3          	mul	a5,a5,a0
    80004660:	9381                	srli	a5,a5,0x20
    80004662:	2791                	addiw	a5,a5,4
    80004664:	02079713          	slli	a4,a5,0x20
    80004668:	8371                	srli	a4,a4,0x1c
    8000466a:	1c077593          	andi	a1,a4,448
    8000466e:	963a                	add	a2,a2,a4
    80004670:	e595                	bnez	a1,8000469c <f64_div+0x16a>
    80004672:	0017979b          	slliw	a5,a5,0x1
    80004676:	9bc1                	andi	a5,a5,-16
    80004678:	1782                	slli	a5,a5,0x20
    8000467a:	9381                	srli	a5,a5,0x20
    8000467c:	02f686b3          	mul	a3,a3,a5
    80004680:	f8067613          	andi	a2,a2,-128
    80004684:	02f40433          	mul	s0,s0,a5
    80004688:	40d989b3          	sub	s3,s3,a3
    8000468c:	09f2                	slli	s3,s3,0x1c
    8000468e:	40898433          	sub	s0,s3,s0
    80004692:	02044e63          	bltz	s0,800046ce <f64_div+0x19c>
    80004696:	c019                	beqz	s0,8000469c <f64_div+0x16a>
    80004698:	00166613          	ori	a2,a2,1
    8000469c:	7442                	ld	s0,48(sp)
    8000469e:	70e2                	ld	ra,56(sp)
    800046a0:	69e2                	ld	s3,24(sp)
    800046a2:	6a42                	ld	s4,16(sp)
    800046a4:	85ca                	mv	a1,s2
    800046a6:	8526                	mv	a0,s1
    800046a8:	7902                	ld	s2,32(sp)
    800046aa:	74a2                	ld	s1,40(sp)
    800046ac:	6121                	addi	sp,sp,64
    800046ae:	1720106f          	j	80005820 <softfloat_roundPackToF64>
    800046b2:	70e2                	ld	ra,56(sp)
    800046b4:	7442                	ld	s0,48(sp)
    800046b6:	7902                	ld	s2,32(sp)
    800046b8:	69e2                	ld	s3,24(sp)
    800046ba:	6a42                	ld	s4,16(sp)
    800046bc:	03f49513          	slli	a0,s1,0x3f
    800046c0:	74a2                	ld	s1,40(sp)
    800046c2:	6121                	addi	sp,sp,64
    800046c4:	8082                	ret
    800046c6:	3fd9091b          	addiw	s2,s2,1021
    800046ca:	09ae                	slli	s3,s3,0xb
    800046cc:	b789                	j	8000460e <f64_div+0xdc>
    800046ce:	f8060613          	addi	a2,a2,-128 # 7f7fff80 <MEM_START-0x800080>
    800046d2:	b7e9                	j	8000469c <f64_div+0x16a>

00000000800046d4 <f64_eq>:
    800046d4:	7ff00693          	li	a3,2047
    800046d8:	fff54713          	not	a4,a0
    800046dc:	16d2                	slli	a3,a3,0x34
    800046de:	8f75                	and	a4,a4,a3
    800046e0:	87aa                	mv	a5,a0
    800046e2:	e701                	bnez	a4,800046ea <f64_eq+0x16>
    800046e4:	00c51713          	slli	a4,a0,0xc
    800046e8:	e70d                	bnez	a4,80004712 <f64_eq+0x3e>
    800046ea:	7ff00693          	li	a3,2047
    800046ee:	fff5c713          	not	a4,a1
    800046f2:	16d2                	slli	a3,a3,0x34
    800046f4:	8f75                	and	a4,a4,a3
    800046f6:	e701                	bnez	a4,800046fe <f64_eq+0x2a>
    800046f8:	00c59713          	slli	a4,a1,0xc
    800046fc:	eb19                	bnez	a4,80004712 <f64_eq+0x3e>
    800046fe:	4505                	li	a0,1
    80004700:	00b78863          	beq	a5,a1,80004710 <f64_eq+0x3c>
    80004704:	00b7e533          	or	a0,a5,a1
    80004708:	0506                	slli	a0,a0,0x1
    8000470a:	8105                	srli	a0,a0,0x1
    8000470c:	00153513          	seqz	a0,a0
    80004710:	8082                	ret
    80004712:	00fff737          	lui	a4,0xfff
    80004716:	171e                	slli	a4,a4,0x27
    80004718:	7ff00693          	li	a3,2047
    8000471c:	8f7d                	and	a4,a4,a5
    8000471e:	16d2                	slli	a3,a3,0x34
    80004720:	02d70363          	beq	a4,a3,80004746 <f64_eq+0x72>
    80004724:	00fff7b7          	lui	a5,0xfff
    80004728:	179e                	slli	a5,a5,0x27
    8000472a:	7ff00713          	li	a4,2047
    8000472e:	8fed                	and	a5,a5,a1
    80004730:	1752                	slli	a4,a4,0x34
    80004732:	4501                	li	a0,0
    80004734:	fce79ee3          	bne	a5,a4,80004710 <f64_eq+0x3c>
    80004738:	00d59793          	slli	a5,a1,0xd
    8000473c:	dbf1                	beqz	a5,80004710 <f64_eq+0x3c>
    8000473e:	01026213          	ori	tp,tp,16
    80004742:	4501                	li	a0,0
    80004744:	8082                	ret
    80004746:	00d79713          	slli	a4,a5,0xd
    8000474a:	fb75                	bnez	a4,8000473e <f64_eq+0x6a>
    8000474c:	bfe1                	j	80004724 <f64_eq+0x50>

000000008000474e <f64_lt>:
    8000474e:	7ff00693          	li	a3,2047
    80004752:	fff54713          	not	a4,a0
    80004756:	16d2                	slli	a3,a3,0x34
    80004758:	8f75                	and	a4,a4,a3
    8000475a:	87aa                	mv	a5,a0
    8000475c:	e701                	bnez	a4,80004764 <f64_lt+0x16>
    8000475e:	00c51713          	slli	a4,a0,0xc
    80004762:	ef0d                	bnez	a4,8000479c <f64_lt+0x4e>
    80004764:	7ff00693          	li	a3,2047
    80004768:	fff5c713          	not	a4,a1
    8000476c:	16d2                	slli	a3,a3,0x34
    8000476e:	8f75                	and	a4,a4,a3
    80004770:	e701                	bnez	a4,80004778 <f64_lt+0x2a>
    80004772:	00c59713          	slli	a4,a1,0xc
    80004776:	e31d                	bnez	a4,8000479c <f64_lt+0x4e>
    80004778:	03f7d713          	srli	a4,a5,0x3f
    8000477c:	03f5d693          	srli	a3,a1,0x3f
    80004780:	4501                	li	a0,0
    80004782:	00d70563          	beq	a4,a3,8000478c <f64_lt+0x3e>
    80004786:	0007cf63          	bltz	a5,800047a4 <f64_lt+0x56>
    8000478a:	8082                	ret
    8000478c:	feb78fe3          	beq	a5,a1,8000478a <f64_lt+0x3c>
    80004790:	00b7b533          	sltu	a0,a5,a1
    80004794:	8d19                	sub	a0,a0,a4
    80004796:	00a03533          	snez	a0,a0
    8000479a:	8082                	ret
    8000479c:	01026213          	ori	tp,tp,16
    800047a0:	4501                	li	a0,0
    800047a2:	8082                	ret
    800047a4:	00b7e533          	or	a0,a5,a1
    800047a8:	0506                	slli	a0,a0,0x1
    800047aa:	8105                	srli	a0,a0,0x1
    800047ac:	00a03533          	snez	a0,a0
    800047b0:	8082                	ret

00000000800047b2 <f64_lt_quiet>:
    800047b2:	7ff00693          	li	a3,2047
    800047b6:	fff54713          	not	a4,a0
    800047ba:	16d2                	slli	a3,a3,0x34
    800047bc:	8f75                	and	a4,a4,a3
    800047be:	87aa                	mv	a5,a0
    800047c0:	e701                	bnez	a4,800047c8 <f64_lt_quiet+0x16>
    800047c2:	00c51713          	slli	a4,a0,0xc
    800047c6:	ef0d                	bnez	a4,80004800 <f64_lt_quiet+0x4e>
    800047c8:	7ff00693          	li	a3,2047
    800047cc:	fff5c713          	not	a4,a1
    800047d0:	16d2                	slli	a3,a3,0x34
    800047d2:	8f75                	and	a4,a4,a3
    800047d4:	e701                	bnez	a4,800047dc <f64_lt_quiet+0x2a>
    800047d6:	00c59713          	slli	a4,a1,0xc
    800047da:	e31d                	bnez	a4,80004800 <f64_lt_quiet+0x4e>
    800047dc:	03f7d713          	srli	a4,a5,0x3f
    800047e0:	03f5d693          	srli	a3,a1,0x3f
    800047e4:	4501                	li	a0,0
    800047e6:	00d70563          	beq	a4,a3,800047f0 <f64_lt_quiet+0x3e>
    800047ea:	0407c563          	bltz	a5,80004834 <f64_lt_quiet+0x82>
    800047ee:	8082                	ret
    800047f0:	feb78fe3          	beq	a5,a1,800047ee <f64_lt_quiet+0x3c>
    800047f4:	00b7b533          	sltu	a0,a5,a1
    800047f8:	8d19                	sub	a0,a0,a4
    800047fa:	00a03533          	snez	a0,a0
    800047fe:	8082                	ret
    80004800:	00fff737          	lui	a4,0xfff
    80004804:	171e                	slli	a4,a4,0x27
    80004806:	7ff00693          	li	a3,2047
    8000480a:	8f7d                	and	a4,a4,a5
    8000480c:	16d2                	slli	a3,a3,0x34
    8000480e:	02d70a63          	beq	a4,a3,80004842 <f64_lt_quiet+0x90>
    80004812:	00fff7b7          	lui	a5,0xfff
    80004816:	179e                	slli	a5,a5,0x27
    80004818:	7ff00713          	li	a4,2047
    8000481c:	8fed                	and	a5,a5,a1
    8000481e:	1752                	slli	a4,a4,0x34
    80004820:	4501                	li	a0,0
    80004822:	fce796e3          	bne	a5,a4,800047ee <f64_lt_quiet+0x3c>
    80004826:	00d59793          	slli	a5,a1,0xd
    8000482a:	d3f1                	beqz	a5,800047ee <f64_lt_quiet+0x3c>
    8000482c:	01026213          	ori	tp,tp,16
    80004830:	4501                	li	a0,0
    80004832:	8082                	ret
    80004834:	00b7e533          	or	a0,a5,a1
    80004838:	0506                	slli	a0,a0,0x1
    8000483a:	8105                	srli	a0,a0,0x1
    8000483c:	00a03533          	snez	a0,a0
    80004840:	8082                	ret
    80004842:	00d79713          	slli	a4,a5,0xd
    80004846:	f37d                	bnez	a4,8000482c <f64_lt_quiet+0x7a>
    80004848:	b7e9                	j	80004812 <f64_lt_quiet+0x60>

000000008000484a <f64_mul>:
    8000484a:	715d                	addi	sp,sp,-80
    8000484c:	fc26                	sd	s1,56(sp)
    8000484e:	57fd                	li	a5,-1
    80004850:	03455493          	srli	s1,a0,0x34
    80004854:	83b1                	srli	a5,a5,0xc
    80004856:	e0a2                	sd	s0,64(sp)
    80004858:	f84a                	sd	s2,48(sp)
    8000485a:	f44e                	sd	s3,40(sp)
    8000485c:	f052                	sd	s4,32(sp)
    8000485e:	0345d913          	srli	s2,a1,0x34
    80004862:	00a5c6b3          	xor	a3,a1,a0
    80004866:	e486                	sd	ra,72(sp)
    80004868:	7ff4f493          	andi	s1,s1,2047
    8000486c:	7ff00713          	li	a4,2047
    80004870:	00f579b3          	and	s3,a0,a5
    80004874:	7ff97913          	andi	s2,s2,2047
    80004878:	00f5f433          	and	s0,a1,a5
    8000487c:	03f6da13          	srli	s4,a3,0x3f
    80004880:	02e48c63          	beq	s1,a4,800048b8 <f64_mul+0x6e>
    80004884:	00e90f63          	beq	s2,a4,800048a2 <f64_mul+0x58>
    80004888:	e0bd                	bnez	s1,800048ee <f64_mul+0xa4>
    8000488a:	04099c63          	bnez	s3,800048e2 <f64_mul+0x98>
    8000488e:	60a6                	ld	ra,72(sp)
    80004890:	6406                	ld	s0,64(sp)
    80004892:	74e2                	ld	s1,56(sp)
    80004894:	7942                	ld	s2,48(sp)
    80004896:	79a2                	ld	s3,40(sp)
    80004898:	03fa1513          	slli	a0,s4,0x3f
    8000489c:	7a02                	ld	s4,32(sp)
    8000489e:	6161                	addi	sp,sp,80
    800048a0:	8082                	ret
    800048a2:	c455                	beqz	s0,8000494e <f64_mul+0x104>
    800048a4:	6de010ef          	jal	ra,80005f82 <softfloat_propagateNaNF64UI>
    800048a8:	60a6                	ld	ra,72(sp)
    800048aa:	6406                	ld	s0,64(sp)
    800048ac:	74e2                	ld	s1,56(sp)
    800048ae:	7942                	ld	s2,48(sp)
    800048b0:	79a2                	ld	s3,40(sp)
    800048b2:	7a02                	ld	s4,32(sp)
    800048b4:	6161                	addi	sp,sp,80
    800048b6:	8082                	ret
    800048b8:	fe0996e3          	bnez	s3,800048a4 <f64_mul+0x5a>
    800048bc:	00991363          	bne	s2,s1,800048c2 <f64_mul+0x78>
    800048c0:	f075                	bnez	s0,800048a4 <f64_mul+0x5a>
    800048c2:	008965b3          	or	a1,s2,s0
    800048c6:	e5d9                	bnez	a1,80004954 <f64_mul+0x10a>
    800048c8:	01026213          	ori	tp,tp,16
    800048cc:	60a6                	ld	ra,72(sp)
    800048ce:	6406                	ld	s0,64(sp)
    800048d0:	00fff537          	lui	a0,0xfff
    800048d4:	74e2                	ld	s1,56(sp)
    800048d6:	7942                	ld	s2,48(sp)
    800048d8:	79a2                	ld	s3,40(sp)
    800048da:	7a02                	ld	s4,32(sp)
    800048dc:	151e                	slli	a0,a0,0x27
    800048de:	6161                	addi	sp,sp,80
    800048e0:	8082                	ret
    800048e2:	854e                	mv	a0,s3
    800048e4:	59f000ef          	jal	ra,80005682 <softfloat_normSubnormalF64Sig>
    800048e8:	0005049b          	sext.w	s1,a0
    800048ec:	89ae                	mv	s3,a1
    800048ee:	00091963          	bnez	s2,80004900 <f64_mul+0xb6>
    800048f2:	dc51                	beqz	s0,8000488e <f64_mul+0x44>
    800048f4:	8522                	mv	a0,s0
    800048f6:	58d000ef          	jal	ra,80005682 <softfloat_normSubnormalF64Sig>
    800048fa:	0005091b          	sext.w	s2,a0
    800048fe:	842e                	mv	s0,a1
    80004900:	55fd                	li	a1,-1
    80004902:	4505                	li	a0,1
    80004904:	09aa                	slli	s3,s3,0xa
    80004906:	042e                	slli	s0,s0,0xb
    80004908:	15fe                	slli	a1,a1,0x3f
    8000490a:	157a                	slli	a0,a0,0x3e
    8000490c:	0810                	addi	a2,sp,16
    8000490e:	8dc1                	or	a1,a1,s0
    80004910:	00a9e533          	or	a0,s3,a0
    80004914:	6c2000ef          	jal	ra,80004fd6 <softfloat_mul64To128M>
    80004918:	47d2                	lw	a5,20(sp)
    8000491a:	4742                	lw	a4,16(sp)
    8000491c:	6662                	ld	a2,24(sp)
    8000491e:	012485bb          	addw	a1,s1,s2
    80004922:	8fd9                	or	a5,a5,a4
    80004924:	2781                	sext.w	a5,a5
    80004926:	c399                	beqz	a5,8000492c <f64_mul+0xe2>
    80004928:	00166613          	ori	a2,a2,1
    8000492c:	57fd                	li	a5,-1
    8000492e:	8389                	srli	a5,a5,0x2
    80004930:	04c7f063          	bgeu	a5,a2,80004970 <f64_mul+0x126>
    80004934:	c015859b          	addiw	a1,a1,-1023
    80004938:	8552                	mv	a0,s4
    8000493a:	6e7000ef          	jal	ra,80005820 <softfloat_roundPackToF64>
    8000493e:	60a6                	ld	ra,72(sp)
    80004940:	6406                	ld	s0,64(sp)
    80004942:	74e2                	ld	s1,56(sp)
    80004944:	7942                	ld	s2,48(sp)
    80004946:	79a2                	ld	s3,40(sp)
    80004948:	7a02                	ld	s4,32(sp)
    8000494a:	6161                	addi	sp,sp,80
    8000494c:	8082                	ret
    8000494e:	0134e5b3          	or	a1,s1,s3
    80004952:	d9bd                	beqz	a1,800048c8 <f64_mul+0x7e>
    80004954:	60a6                	ld	ra,72(sp)
    80004956:	6406                	ld	s0,64(sp)
    80004958:	7ff00793          	li	a5,2047
    8000495c:	03fa1513          	slli	a0,s4,0x3f
    80004960:	17d2                	slli	a5,a5,0x34
    80004962:	74e2                	ld	s1,56(sp)
    80004964:	7942                	ld	s2,48(sp)
    80004966:	79a2                	ld	s3,40(sp)
    80004968:	7a02                	ld	s4,32(sp)
    8000496a:	953e                	add	a0,a0,a5
    8000496c:	6161                	addi	sp,sp,80
    8000496e:	8082                	ret
    80004970:	c005859b          	addiw	a1,a1,-1024
    80004974:	0606                	slli	a2,a2,0x1
    80004976:	b7c9                	j	80004938 <f64_mul+0xee>

0000000080004978 <f64_sqrt>:
    80004978:	7139                	addi	sp,sp,-64
    8000497a:	03455713          	srli	a4,a0,0x34
    8000497e:	00c51593          	slli	a1,a0,0xc
    80004982:	fc06                	sd	ra,56(sp)
    80004984:	f822                	sd	s0,48(sp)
    80004986:	f426                	sd	s1,40(sp)
    80004988:	f04a                	sd	s2,32(sp)
    8000498a:	ec4e                	sd	s3,24(sp)
    8000498c:	7ff77713          	andi	a4,a4,2047
    80004990:	7ff00693          	li	a3,2047
    80004994:	87aa                	mv	a5,a0
    80004996:	81b1                	srli	a1,a1,0xc
    80004998:	02d70c63          	beq	a4,a3,800049d0 <f64_sqrt+0x58>
    8000499c:	00054c63          	bltz	a0,800049b4 <f64_sqrt+0x3c>
    800049a0:	e731                	bnez	a4,800049ec <f64_sqrt+0x74>
    800049a2:	e1a1                	bnez	a1,800049e2 <f64_sqrt+0x6a>
    800049a4:	853e                	mv	a0,a5
    800049a6:	70e2                	ld	ra,56(sp)
    800049a8:	7442                	ld	s0,48(sp)
    800049aa:	74a2                	ld	s1,40(sp)
    800049ac:	7902                	ld	s2,32(sp)
    800049ae:	69e2                	ld	s3,24(sp)
    800049b0:	6121                	addi	sp,sp,64
    800049b2:	8082                	ret
    800049b4:	8f4d                	or	a4,a4,a1
    800049b6:	d77d                	beqz	a4,800049a4 <f64_sqrt+0x2c>
    800049b8:	01026213          	ori	tp,tp,16
    800049bc:	00fff537          	lui	a0,0xfff
    800049c0:	151e                	slli	a0,a0,0x27
    800049c2:	70e2                	ld	ra,56(sp)
    800049c4:	7442                	ld	s0,48(sp)
    800049c6:	74a2                	ld	s1,40(sp)
    800049c8:	7902                	ld	s2,32(sp)
    800049ca:	69e2                	ld	s3,24(sp)
    800049cc:	6121                	addi	sp,sp,64
    800049ce:	8082                	ret
    800049d0:	edd5                	bnez	a1,80004a8c <f64_sqrt+0x114>
    800049d2:	fc0559e3          	bgez	a0,800049a4 <f64_sqrt+0x2c>
    800049d6:	01026213          	ori	tp,tp,16
    800049da:	00fff537          	lui	a0,0xfff
    800049de:	151e                	slli	a0,a0,0x27
    800049e0:	b7cd                	j	800049c2 <f64_sqrt+0x4a>
    800049e2:	852e                	mv	a0,a1
    800049e4:	49f000ef          	jal	ra,80005682 <softfloat_normSubnormalF64Sig>
    800049e8:	0005071b          	sext.w	a4,a0
    800049ec:	4485                	li	s1,1
    800049ee:	14d2                	slli	s1,s1,0x34
    800049f0:	8ccd                	or	s1,s1,a1
    800049f2:	0154d913          	srli	s2,s1,0x15
    800049f6:	00177513          	andi	a0,a4,1
    800049fa:	0009059b          	sext.w	a1,s2
    800049fe:	c017099b          	addiw	s3,a4,-1023
    80004a02:	842a                	mv	s0,a0
    80004a04:	536000ef          	jal	ra,80004f3a <softfloat_approxRecipSqrt32_1>
    80004a08:	1502                	slli	a0,a0,0x20
    80004a0a:	1902                	slli	s2,s2,0x20
    80004a0c:	9101                	srli	a0,a0,0x20
    80004a0e:	02095913          	srli	s2,s2,0x20
    80004a12:	02a90933          	mul	s2,s2,a0
    80004a16:	4019d99b          	sraiw	s3,s3,0x1
    80004a1a:	3fe9899b          	addiw	s3,s3,1022
    80004a1e:	00949713          	slli	a4,s1,0x9
    80004a22:	02095793          	srli	a5,s2,0x20
    80004a26:	42095913          	srai	s2,s2,0x20
    80004a2a:	c409                	beqz	s0,80004a34 <f64_sqrt+0xbc>
    80004a2c:	00849713          	slli	a4,s1,0x8
    80004a30:	0019579b          	srliw	a5,s2,0x1
    80004a34:	02f78633          	mul	a2,a5,a5
    80004a38:	1782                	slli	a5,a5,0x20
    80004a3a:	0207e793          	ori	a5,a5,32
    80004a3e:	02100693          	li	a3,33
    80004a42:	40c70633          	sub	a2,a4,a2
    80004a46:	8209                	srli	a2,a2,0x2
    80004a48:	1602                	slli	a2,a2,0x20
    80004a4a:	9201                	srli	a2,a2,0x20
    80004a4c:	02a60633          	mul	a2,a2,a0
    80004a50:	9201                	srli	a2,a2,0x20
    80004a52:	060e                	slli	a2,a2,0x3
    80004a54:	963e                	add	a2,a2,a5
    80004a56:	1ff67793          	andi	a5,a2,511
    80004a5a:	00f6ef63          	bltu	a3,a5,80004a78 <f64_sqrt+0x100>
    80004a5e:	fc067613          	andi	a2,a2,-64
    80004a62:	00665793          	srli	a5,a2,0x6
    80004a66:	02f787b3          	mul	a5,a5,a5
    80004a6a:	1752                	slli	a4,a4,0x34
    80004a6c:	8f1d                	sub	a4,a4,a5
    80004a6e:	02074363          	bltz	a4,80004a94 <f64_sqrt+0x11c>
    80004a72:	c319                	beqz	a4,80004a78 <f64_sqrt+0x100>
    80004a74:	00166613          	ori	a2,a2,1
    80004a78:	7442                	ld	s0,48(sp)
    80004a7a:	70e2                	ld	ra,56(sp)
    80004a7c:	74a2                	ld	s1,40(sp)
    80004a7e:	7902                	ld	s2,32(sp)
    80004a80:	85ce                	mv	a1,s3
    80004a82:	69e2                	ld	s3,24(sp)
    80004a84:	4501                	li	a0,0
    80004a86:	6121                	addi	sp,sp,64
    80004a88:	5990006f          	j	80005820 <softfloat_roundPackToF64>
    80004a8c:	4581                	li	a1,0
    80004a8e:	4f4010ef          	jal	ra,80005f82 <softfloat_propagateNaNF64UI>
    80004a92:	bf11                	j	800049a6 <f64_sqrt+0x2e>
    80004a94:	167d                	addi	a2,a2,-1
    80004a96:	b7cd                	j	80004a78 <f64_sqrt+0x100>

0000000080004a98 <f64_to_f32>:
    80004a98:	1101                	addi	sp,sp,-32
    80004a9a:	e822                	sd	s0,16(sp)
    80004a9c:	03455413          	srli	s0,a0,0x34
    80004aa0:	87aa                	mv	a5,a0
    80004aa2:	e426                	sd	s1,8(sp)
    80004aa4:	0532                	slli	a0,a0,0xc
    80004aa6:	ec06                	sd	ra,24(sp)
    80004aa8:	7ff47413          	andi	s0,s0,2047
    80004aac:	7ff00713          	li	a4,2047
    80004ab0:	03f7d493          	srli	s1,a5,0x3f
    80004ab4:	8131                	srli	a0,a0,0xc
    80004ab6:	02e40c63          	beq	s0,a4,80004aee <f64_to_f32+0x56>
    80004aba:	45d9                	li	a1,22
    80004abc:	09c010ef          	jal	ra,80005b58 <softfloat_shortShiftRightJam64>
    80004ac0:	2501                	sext.w	a0,a0
    80004ac2:	00a467b3          	or	a5,s0,a0
    80004ac6:	eb81                	bnez	a5,80004ad6 <f64_to_f32+0x3e>
    80004ac8:	01f4951b          	slliw	a0,s1,0x1f
    80004acc:	60e2                	ld	ra,24(sp)
    80004ace:	6442                	ld	s0,16(sp)
    80004ad0:	64a2                	ld	s1,8(sp)
    80004ad2:	6105                	addi	sp,sp,32
    80004ad4:	8082                	ret
    80004ad6:	40000637          	lui	a2,0x40000
    80004ada:	c7f4059b          	addiw	a1,s0,-897
    80004ade:	6442                	ld	s0,16(sp)
    80004ae0:	60e2                	ld	ra,24(sp)
    80004ae2:	8e49                	or	a2,a2,a0
    80004ae4:	8526                	mv	a0,s1
    80004ae6:	64a2                	ld	s1,8(sp)
    80004ae8:	6105                	addi	sp,sp,32
    80004aea:	4350006f          	j	8000571e <softfloat_roundPackToF32>
    80004aee:	c911                	beqz	a0,80004b02 <f64_to_f32+0x6a>
    80004af0:	00c79713          	slli	a4,a5,0xc
    80004af4:	7fc00537          	lui	a0,0x7fc00
    80004af8:	fc074ae3          	bltz	a4,80004acc <f64_to_f32+0x34>
    80004afc:	01026213          	ori	tp,tp,16
    80004b00:	b7f1                	j	80004acc <f64_to_f32+0x34>
    80004b02:	60e2                	ld	ra,24(sp)
    80004b04:	6442                	ld	s0,16(sp)
    80004b06:	01f4949b          	slliw	s1,s1,0x1f
    80004b0a:	7f800537          	lui	a0,0x7f800
    80004b0e:	9d25                	addw	a0,a0,s1
    80004b10:	64a2                	ld	s1,8(sp)
    80004b12:	6105                	addi	sp,sp,32
    80004b14:	8082                	ret

0000000080004b16 <f64_to_ui64>:
    80004b16:	7139                	addi	sp,sp,-64
    80004b18:	03455713          	srli	a4,a0,0x34
    80004b1c:	f822                	sd	s0,48(sp)
    80004b1e:	f426                	sd	s1,40(sp)
    80004b20:	ec4e                	sd	s3,24(sp)
    80004b22:	7ff77713          	andi	a4,a4,2047
    80004b26:	00c51813          	slli	a6,a0,0xc
    80004b2a:	43300693          	li	a3,1075
    80004b2e:	fc06                	sd	ra,56(sp)
    80004b30:	f04a                	sd	s2,32(sp)
    80004b32:	c002                	sw	zero,0(sp)
    80004b34:	84b2                	mv	s1,a2
    80004b36:	842e                	mv	s0,a1
    80004b38:	03f55993          	srli	s3,a0,0x3f
    80004b3c:	00c85813          	srli	a6,a6,0xc
    80004b40:	40e6863b          	subw	a2,a3,a4
    80004b44:	eb05                	bnez	a4,80004b74 <f64_to_ui64+0x5e>
    80004b46:	890a                	mv	s2,sp
    80004b48:	02085793          	srli	a5,a6,0x20
    80004b4c:	86ca                	mv	a3,s2
    80004b4e:	85ca                	mv	a1,s2
    80004b50:	450d                	li	a0,3
    80004b52:	c43e                	sw	a5,8(sp)
    80004b54:	c242                	sw	a6,4(sp)
    80004b56:	699000ef          	jal	ra,800059ee <softfloat_shiftRightJamM>
    80004b5a:	86a6                	mv	a3,s1
    80004b5c:	8622                	mv	a2,s0
    80004b5e:	85ca                	mv	a1,s2
    80004b60:	854e                	mv	a0,s3
    80004b62:	345000ef          	jal	ra,800056a6 <softfloat_roundMToUI64>
    80004b66:	70e2                	ld	ra,56(sp)
    80004b68:	7442                	ld	s0,48(sp)
    80004b6a:	74a2                	ld	s1,40(sp)
    80004b6c:	7902                	ld	s2,32(sp)
    80004b6e:	69e2                	ld	s3,24(sp)
    80004b70:	6121                	addi	sp,sp,64
    80004b72:	8082                	ret
    80004b74:	4685                	li	a3,1
    80004b76:	16d2                	slli	a3,a3,0x34
    80004b78:	00d866b3          	or	a3,a6,a3
    80004b7c:	04c04463          	bgtz	a2,80004bc4 <f64_to_ui64+0xae>
    80004b80:	55d5                	li	a1,-11
    80004b82:	00b64c63          	blt	a2,a1,80004b9a <f64_to_ui64+0x84>
    80004b86:	bcd7071b          	addiw	a4,a4,-1075
    80004b8a:	00e69733          	sll	a4,a3,a4
    80004b8e:	02075793          	srli	a5,a4,0x20
    80004b92:	c43e                	sw	a5,8(sp)
    80004b94:	c23a                	sw	a4,4(sp)
    80004b96:	890a                	mv	s2,sp
    80004b98:	b7c9                	j	80004b5a <f64_to_ui64+0x44>
    80004b9a:	87aa                	mv	a5,a0
    80004b9c:	01026213          	ori	tp,tp,16
    80004ba0:	7ff00693          	li	a3,2047
    80004ba4:	00d70c63          	beq	a4,a3,80004bbc <f64_to_ui64+0xa6>
    80004ba8:	70e2                	ld	ra,56(sp)
    80004baa:	7442                	ld	s0,48(sp)
    80004bac:	fff7c513          	not	a0,a5
    80004bb0:	74a2                	ld	s1,40(sp)
    80004bb2:	7902                	ld	s2,32(sp)
    80004bb4:	69e2                	ld	s3,24(sp)
    80004bb6:	957d                	srai	a0,a0,0x3f
    80004bb8:	6121                	addi	sp,sp,64
    80004bba:	8082                	ret
    80004bbc:	557d                	li	a0,-1
    80004bbe:	fe0805e3          	beqz	a6,80004ba8 <f64_to_ui64+0x92>
    80004bc2:	b755                	j	80004b66 <f64_to_ui64+0x50>
    80004bc4:	8836                	mv	a6,a3
    80004bc6:	b741                	j	80004b46 <f64_to_ui64+0x30>

0000000080004bc8 <f64_classify>:
    80004bc8:	03455793          	srli	a5,a0,0x34
    80004bcc:	7ff7f793          	andi	a5,a5,2047
    80004bd0:	7ff00713          	li	a4,2047
    80004bd4:	04054d63          	bltz	a0,80004c2e <f64_classify+0x66>
    80004bd8:	04e78463          	beq	a5,a4,80004c20 <f64_classify+0x58>
    80004bdc:	cbd1                	beqz	a5,80004c70 <f64_classify+0xa8>
    80004bde:	04000793          	li	a5,64
    80004be2:	7ff00693          	li	a3,2047
    80004be6:	fff54713          	not	a4,a0
    80004bea:	16d2                	slli	a3,a3,0x34
    80004bec:	8f75                	and	a4,a4,a3
    80004bee:	e715                	bnez	a4,80004c1a <f64_classify+0x52>
    80004bf0:	00c51713          	slli	a4,a0,0xc
    80004bf4:	c31d                	beqz	a4,80004c1a <f64_classify+0x52>
    80004bf6:	00fff737          	lui	a4,0xfff
    80004bfa:	171e                	slli	a4,a4,0x27
    80004bfc:	8f69                	and	a4,a4,a0
    80004bfe:	04d70363          	beq	a4,a3,80004c44 <f64_classify+0x7c>
    80004c02:	00fff737          	lui	a4,0xfff
    80004c06:	171e                	slli	a4,a4,0x27
    80004c08:	7ff00693          	li	a3,2047
    80004c0c:	8f69                	and	a4,a4,a0
    80004c0e:	16d2                	slli	a3,a3,0x34
    80004c10:	04d70163          	beq	a4,a3,80004c52 <f64_classify+0x8a>
    80004c14:	2007e793          	ori	a5,a5,512
    80004c18:	2781                	sext.w	a5,a5
    80004c1a:	0007851b          	sext.w	a0,a5
    80004c1e:	8082                	ret
    80004c20:	00c51793          	slli	a5,a0,0xc
    80004c24:	83b1                	srli	a5,a5,0xc
    80004c26:	0017b793          	seqz	a5,a5
    80004c2a:	079e                	slli	a5,a5,0x7
    80004c2c:	bf5d                	j	80004be2 <f64_classify+0x1a>
    80004c2e:	02e78b63          	beq	a5,a4,80004c64 <f64_classify+0x9c>
    80004c32:	c399                	beqz	a5,80004c38 <f64_classify+0x70>
    80004c34:	4789                	li	a5,2
    80004c36:	b775                	j	80004be2 <f64_classify+0x1a>
    80004c38:	00c51713          	slli	a4,a0,0xc
    80004c3c:	47a1                	li	a5,8
    80004c3e:	d355                	beqz	a4,80004be2 <f64_classify+0x1a>
    80004c40:	4791                	li	a5,4
    80004c42:	b745                	j	80004be2 <f64_classify+0x1a>
    80004c44:	577d                	li	a4,-1
    80004c46:	8335                	srli	a4,a4,0xd
    80004c48:	8f69                	and	a4,a4,a0
    80004c4a:	df45                	beqz	a4,80004c02 <f64_classify+0x3a>
    80004c4c:	1007e793          	ori	a5,a5,256
    80004c50:	2781                	sext.w	a5,a5
    80004c52:	0536                	slli	a0,a0,0xd
    80004c54:	8135                	srli	a0,a0,0xd
    80004c56:	00153513          	seqz	a0,a0
    80004c5a:	0095151b          	slliw	a0,a0,0x9
    80004c5e:	8fc9                	or	a5,a5,a0
    80004c60:	2781                	sext.w	a5,a5
    80004c62:	bf65                	j	80004c1a <f64_classify+0x52>
    80004c64:	00c51793          	slli	a5,a0,0xc
    80004c68:	83b1                	srli	a5,a5,0xc
    80004c6a:	0017b793          	seqz	a5,a5
    80004c6e:	bf95                	j	80004be2 <f64_classify+0x1a>
    80004c70:	00c51713          	slli	a4,a0,0xc
    80004c74:	8331                	srli	a4,a4,0xc
    80004c76:	4781                	li	a5,0
    80004c78:	c319                	beqz	a4,80004c7e <f64_classify+0xb6>
    80004c7a:	0207e793          	ori	a5,a5,32
    80004c7e:	00173713          	seqz	a4,a4
    80004c82:	0047171b          	slliw	a4,a4,0x4
    80004c86:	8fd9                	or	a5,a5,a4
    80004c88:	bfa9                	j	80004be2 <f64_classify+0x1a>

0000000080004c8a <softfloat_addMagsF32>:
    80004c8a:	7179                	addi	sp,sp,-48
    80004c8c:	0175571b          	srliw	a4,a0,0x17
    80004c90:	f022                	sd	s0,32(sp)
    80004c92:	008007b7          	lui	a5,0x800
    80004c96:	0175d41b          	srliw	s0,a1,0x17
    80004c9a:	17fd                	addi	a5,a5,-1
    80004c9c:	e84a                	sd	s2,16(sp)
    80004c9e:	0ff47413          	andi	s0,s0,255
    80004ca2:	0ff77913          	andi	s2,a4,255
    80004ca6:	f406                	sd	ra,40(sp)
    80004ca8:	ec26                	sd	s1,24(sp)
    80004caa:	e44e                	sd	s3,8(sp)
    80004cac:	e052                	sd	s4,0(sp)
    80004cae:	00f576b3          	and	a3,a0,a5
    80004cb2:	00f5f733          	and	a4,a1,a5
    80004cb6:	4089083b          	subw	a6,s2,s0
    80004cba:	02891e63          	bne	s2,s0,80004cf6 <softfloat_addMagsF32+0x6c>
    80004cbe:	0a090c63          	beqz	s2,80004d76 <softfloat_addMagsF32+0xec>
    80004cc2:	0ff00813          	li	a6,255
    80004cc6:	0f090963          	beq	s2,a6,80004db8 <softfloat_addMagsF32+0x12e>
    80004cca:	01000637          	lui	a2,0x1000
    80004cce:	9e39                	addw	a2,a2,a4
    80004cd0:	9e35                	addw	a2,a2,a3
    80004cd2:	00167793          	andi	a5,a2,1
    80004cd6:	01f5599b          	srliw	s3,a0,0x1f
    80004cda:	e7dd                	bnez	a5,80004d88 <softfloat_addMagsF32+0xfe>
    80004cdc:	0fe00793          	li	a5,254
    80004ce0:	0af90463          	beq	s2,a5,80004d88 <softfloat_addMagsF32+0xfe>
    80004ce4:	01f9951b          	slliw	a0,s3,0x1f
    80004ce8:	0016561b          	srliw	a2,a2,0x1
    80004cec:	9e29                	addw	a2,a2,a0
    80004cee:	0179151b          	slliw	a0,s2,0x17
    80004cf2:	9d31                	addw	a0,a0,a2
    80004cf4:	a051                	j	80004d78 <softfloat_addMagsF32+0xee>
    80004cf6:	0066949b          	slliw	s1,a3,0x6
    80004cfa:	00671a1b          	slliw	s4,a4,0x6
    80004cfe:	86a6                	mv	a3,s1
    80004d00:	8752                	mv	a4,s4
    80004d02:	01f5599b          	srliw	s3,a0,0x1f
    80004d06:	0ff00793          	li	a5,255
    80004d0a:	04084663          	bltz	a6,80004d56 <softfloat_addMagsF32+0xcc>
    80004d0e:	08f90063          	beq	s2,a5,80004d8e <softfloat_addMagsF32+0x104>
    80004d12:	20000537          	lui	a0,0x20000
    80004d16:	e011                	bnez	s0,80004d1a <softfloat_addMagsF32+0x90>
    80004d18:	8552                	mv	a0,s4
    80004d1a:	85c2                	mv	a1,a6
    80004d1c:	9d39                	addw	a0,a0,a4
    80004d1e:	48d000ef          	jal	ra,800059aa <softfloat_shiftRightJam32>
    80004d22:	00050a1b          	sext.w	s4,a0
    80004d26:	014484bb          	addw	s1,s1,s4
    80004d2a:	20000537          	lui	a0,0x20000
    80004d2e:	00a4863b          	addw	a2,s1,a0
    80004d32:	400007b7          	lui	a5,0x40000
    80004d36:	00f67563          	bgeu	a2,a5,80004d40 <softfloat_addMagsF32+0xb6>
    80004d3a:	397d                	addiw	s2,s2,-1
    80004d3c:	0016161b          	slliw	a2,a2,0x1
    80004d40:	7402                	ld	s0,32(sp)
    80004d42:	70a2                	ld	ra,40(sp)
    80004d44:	64e2                	ld	s1,24(sp)
    80004d46:	6a02                	ld	s4,0(sp)
    80004d48:	85ca                	mv	a1,s2
    80004d4a:	854e                	mv	a0,s3
    80004d4c:	6942                	ld	s2,16(sp)
    80004d4e:	69a2                	ld	s3,8(sp)
    80004d50:	6145                	addi	sp,sp,48
    80004d52:	1cd0006f          	j	8000571e <softfloat_roundPackToF32>
    80004d56:	04f40863          	beq	s0,a5,80004da6 <softfloat_addMagsF32+0x11c>
    80004d5a:	20000537          	lui	a0,0x20000
    80004d5e:	00091363          	bnez	s2,80004d64 <softfloat_addMagsF32+0xda>
    80004d62:	8526                	mv	a0,s1
    80004d64:	412405bb          	subw	a1,s0,s2
    80004d68:	9d35                	addw	a0,a0,a3
    80004d6a:	441000ef          	jal	ra,800059aa <softfloat_shiftRightJam32>
    80004d6e:	0005049b          	sext.w	s1,a0
    80004d72:	8922                	mv	s2,s0
    80004d74:	bf4d                	j	80004d26 <softfloat_addMagsF32+0x9c>
    80004d76:	9d39                	addw	a0,a0,a4
    80004d78:	70a2                	ld	ra,40(sp)
    80004d7a:	7402                	ld	s0,32(sp)
    80004d7c:	64e2                	ld	s1,24(sp)
    80004d7e:	6942                	ld	s2,16(sp)
    80004d80:	69a2                	ld	s3,8(sp)
    80004d82:	6a02                	ld	s4,0(sp)
    80004d84:	6145                	addi	sp,sp,48
    80004d86:	8082                	ret
    80004d88:	0066161b          	slliw	a2,a2,0x6
    80004d8c:	bf55                	j	80004d40 <softfloat_addMagsF32+0xb6>
    80004d8e:	d4ed                	beqz	s1,80004d78 <softfloat_addMagsF32+0xee>
    80004d90:	1b8010ef          	jal	ra,80005f48 <softfloat_propagateNaNF32UI>
    80004d94:	70a2                	ld	ra,40(sp)
    80004d96:	7402                	ld	s0,32(sp)
    80004d98:	64e2                	ld	s1,24(sp)
    80004d9a:	6942                	ld	s2,16(sp)
    80004d9c:	69a2                	ld	s3,8(sp)
    80004d9e:	6a02                	ld	s4,0(sp)
    80004da0:	2501                	sext.w	a0,a0
    80004da2:	6145                	addi	sp,sp,48
    80004da4:	8082                	ret
    80004da6:	fe0a15e3          	bnez	s4,80004d90 <softfloat_addMagsF32+0x106>
    80004daa:	01f9999b          	slliw	s3,s3,0x1f
    80004dae:	7f800537          	lui	a0,0x7f800
    80004db2:	00a9853b          	addw	a0,s3,a0
    80004db6:	b7c9                	j	80004d78 <softfloat_addMagsF32+0xee>
    80004db8:	862a                	mv	a2,a0
    80004dba:	8e4d                	or	a2,a2,a1
    80004dbc:	8ff1                	and	a5,a5,a2
    80004dbe:	2781                	sext.w	a5,a5
    80004dc0:	fbe1                	bnez	a5,80004d90 <softfloat_addMagsF32+0x106>
    80004dc2:	bf5d                	j	80004d78 <softfloat_addMagsF32+0xee>

0000000080004dc4 <softfloat_addMagsF64>:
    80004dc4:	7179                	addi	sp,sp,-48
    80004dc6:	f022                	sd	s0,32(sp)
    80004dc8:	ec26                	sd	s1,24(sp)
    80004dca:	03455413          	srli	s0,a0,0x34
    80004dce:	0345d493          	srli	s1,a1,0x34
    80004dd2:	57fd                	li	a5,-1
    80004dd4:	83b1                	srli	a5,a5,0xc
    80004dd6:	e44e                	sd	s3,8(sp)
    80004dd8:	7ff47413          	andi	s0,s0,2047
    80004ddc:	7ff4f493          	andi	s1,s1,2047
    80004de0:	f406                	sd	ra,40(sp)
    80004de2:	e84a                	sd	s2,16(sp)
    80004de4:	e052                	sd	s4,0(sp)
    80004de6:	89b2                	mv	s3,a2
    80004de8:	00f576b3          	and	a3,a0,a5
    80004dec:	00f5f733          	and	a4,a1,a5
    80004df0:	4094083b          	subw	a6,s0,s1
    80004df4:	02941863          	bne	s0,s1,80004e24 <softfloat_addMagsF64+0x60>
    80004df8:	c459                	beqz	s0,80004e86 <softfloat_addMagsF64+0xc2>
    80004dfa:	7ff00613          	li	a2,2047
    80004dfe:	0cc40063          	beq	s0,a2,80004ebe <softfloat_addMagsF64+0xfa>
    80004e02:	4505                	li	a0,1
    80004e04:	1556                	slli	a0,a0,0x35
    80004e06:	972a                	add	a4,a4,a0
    80004e08:	9736                	add	a4,a4,a3
    80004e0a:	00971613          	slli	a2,a4,0x9
    80004e0e:	85a2                	mv	a1,s0
    80004e10:	7402                	ld	s0,32(sp)
    80004e12:	70a2                	ld	ra,40(sp)
    80004e14:	64e2                	ld	s1,24(sp)
    80004e16:	6942                	ld	s2,16(sp)
    80004e18:	6a02                	ld	s4,0(sp)
    80004e1a:	854e                	mv	a0,s3
    80004e1c:	69a2                	ld	s3,8(sp)
    80004e1e:	6145                	addi	sp,sp,48
    80004e20:	2010006f          	j	80005820 <softfloat_roundPackToF64>
    80004e24:	00969913          	slli	s2,a3,0x9
    80004e28:	00971a13          	slli	s4,a4,0x9
    80004e2c:	7ff00793          	li	a5,2047
    80004e30:	02084b63          	bltz	a6,80004e66 <softfloat_addMagsF64+0xa2>
    80004e34:	06f40263          	beq	s0,a5,80004e98 <softfloat_addMagsF64+0xd4>
    80004e38:	00a71513          	slli	a0,a4,0xa
    80004e3c:	c489                	beqz	s1,80004e46 <softfloat_addMagsF64+0x82>
    80004e3e:	4705                	li	a4,1
    80004e40:	1776                	slli	a4,a4,0x3d
    80004e42:	00ea0533          	add	a0,s4,a4
    80004e46:	85c2                	mv	a1,a6
    80004e48:	385000ef          	jal	ra,800059cc <softfloat_shiftRightJam64>
    80004e4c:	8a2a                	mv	s4,a0
    80004e4e:	4705                	li	a4,1
    80004e50:	9952                	add	s2,s2,s4
    80004e52:	1776                	slli	a4,a4,0x3d
    80004e54:	57fd                	li	a5,-1
    80004e56:	00e90633          	add	a2,s2,a4
    80004e5a:	8389                	srli	a5,a5,0x2
    80004e5c:	fac7e9e3          	bltu	a5,a2,80004e0e <softfloat_addMagsF64+0x4a>
    80004e60:	347d                	addiw	s0,s0,-1
    80004e62:	0606                	slli	a2,a2,0x1
    80004e64:	b76d                	j	80004e0e <softfloat_addMagsF64+0x4a>
    80004e66:	04f48563          	beq	s1,a5,80004eb0 <softfloat_addMagsF64+0xec>
    80004e6a:	00a69513          	slli	a0,a3,0xa
    80004e6e:	c409                	beqz	s0,80004e78 <softfloat_addMagsF64+0xb4>
    80004e70:	4685                	li	a3,1
    80004e72:	16f6                	slli	a3,a3,0x3d
    80004e74:	00d90533          	add	a0,s2,a3
    80004e78:	408485bb          	subw	a1,s1,s0
    80004e7c:	351000ef          	jal	ra,800059cc <softfloat_shiftRightJam64>
    80004e80:	892a                	mv	s2,a0
    80004e82:	8426                	mv	s0,s1
    80004e84:	b7e9                	j	80004e4e <softfloat_addMagsF64+0x8a>
    80004e86:	953a                	add	a0,a0,a4
    80004e88:	70a2                	ld	ra,40(sp)
    80004e8a:	7402                	ld	s0,32(sp)
    80004e8c:	64e2                	ld	s1,24(sp)
    80004e8e:	6942                	ld	s2,16(sp)
    80004e90:	69a2                	ld	s3,8(sp)
    80004e92:	6a02                	ld	s4,0(sp)
    80004e94:	6145                	addi	sp,sp,48
    80004e96:	8082                	ret
    80004e98:	fe0908e3          	beqz	s2,80004e88 <softfloat_addMagsF64+0xc4>
    80004e9c:	0e6010ef          	jal	ra,80005f82 <softfloat_propagateNaNF64UI>
    80004ea0:	70a2                	ld	ra,40(sp)
    80004ea2:	7402                	ld	s0,32(sp)
    80004ea4:	64e2                	ld	s1,24(sp)
    80004ea6:	6942                	ld	s2,16(sp)
    80004ea8:	69a2                	ld	s3,8(sp)
    80004eaa:	6a02                	ld	s4,0(sp)
    80004eac:	6145                	addi	sp,sp,48
    80004eae:	8082                	ret
    80004eb0:	fe0a16e3          	bnez	s4,80004e9c <softfloat_addMagsF64+0xd8>
    80004eb4:	167e                	slli	a2,a2,0x3f
    80004eb6:	03449513          	slli	a0,s1,0x34
    80004eba:	9532                	add	a0,a0,a2
    80004ebc:	b7f1                	j	80004e88 <softfloat_addMagsF64+0xc4>
    80004ebe:	00b56733          	or	a4,a0,a1
    80004ec2:	8ff9                	and	a5,a5,a4
    80004ec4:	ffe1                	bnez	a5,80004e9c <softfloat_addMagsF64+0xd8>
    80004ec6:	b7c9                	j	80004e88 <softfloat_addMagsF64+0xc4>

0000000080004ec8 <softfloat_approxRecip32_1>:
    80004ec8:	01b5579b          	srliw	a5,a0,0x1b
    80004ecc:	8bbd                	andi	a5,a5,15
    80004ece:	0786                	slli	a5,a5,0x1
    80004ed0:	00002717          	auipc	a4,0x2
    80004ed4:	c2870713          	addi	a4,a4,-984 # 80006af8 <softfloat_approxRecip_1k1s>
    80004ed8:	973e                	add	a4,a4,a5
    80004eda:	00075683          	lhu	a3,0(a4)
    80004ede:	00b5571b          	srliw	a4,a0,0xb
    80004ee2:	1742                	slli	a4,a4,0x30
    80004ee4:	9341                	srli	a4,a4,0x30
    80004ee6:	02e686bb          	mulw	a3,a3,a4
    80004eea:	00002717          	auipc	a4,0x2
    80004eee:	c2e70713          	addi	a4,a4,-978 # 80006b18 <softfloat_approxRecip_1k0s>
    80004ef2:	97ba                	add	a5,a5,a4
    80004ef4:	0007d703          	lhu	a4,0(a5) # 40000000 <MEM_START-0x40000000>
    80004ef8:	02051793          	slli	a5,a0,0x20
    80004efc:	9381                	srli	a5,a5,0x20
    80004efe:	0146d69b          	srliw	a3,a3,0x14
    80004f02:	9f15                	subw	a4,a4,a3
    80004f04:	1742                	slli	a4,a4,0x30
    80004f06:	9341                	srli	a4,a4,0x30
    80004f08:	02e787b3          	mul	a5,a5,a4
    80004f0c:	0107151b          	slliw	a0,a4,0x10
    80004f10:	839d                	srli	a5,a5,0x7
    80004f12:	fff7c793          	not	a5,a5
    80004f16:	1782                	slli	a5,a5,0x20
    80004f18:	9381                	srli	a5,a5,0x20
    80004f1a:	02f70733          	mul	a4,a4,a5
    80004f1e:	02f787b3          	mul	a5,a5,a5
    80004f22:	8361                	srli	a4,a4,0x18
    80004f24:	9f29                	addw	a4,a4,a0
    80004f26:	02071513          	slli	a0,a4,0x20
    80004f2a:	9101                	srli	a0,a0,0x20
    80004f2c:	9381                	srli	a5,a5,0x20
    80004f2e:	02a787b3          	mul	a5,a5,a0
    80004f32:	93c1                	srli	a5,a5,0x30
    80004f34:	00f7053b          	addw	a0,a4,a5
    80004f38:	8082                	ret

0000000080004f3a <softfloat_approxRecipSqrt32_1>:
    80004f3a:	01b5d69b          	srliw	a3,a1,0x1b
    80004f3e:	8ab9                	andi	a3,a3,14
    80004f40:	9ea9                	addw	a3,a3,a0
    80004f42:	0686                	slli	a3,a3,0x1
    80004f44:	00002797          	auipc	a5,0x2
    80004f48:	bf478793          	addi	a5,a5,-1036 # 80006b38 <softfloat_approxRecipSqrt_1k1s>
    80004f4c:	97b6                	add	a5,a5,a3
    80004f4e:	0007d783          	lhu	a5,0(a5)
    80004f52:	00c5d71b          	srliw	a4,a1,0xc
    80004f56:	1742                	slli	a4,a4,0x30
    80004f58:	9341                	srli	a4,a4,0x30
    80004f5a:	02e787bb          	mulw	a5,a5,a4
    80004f5e:	00002717          	auipc	a4,0x2
    80004f62:	bfa70713          	addi	a4,a4,-1030 # 80006b58 <softfloat_approxRecipSqrt_1k0s>
    80004f66:	96ba                	add	a3,a3,a4
    80004f68:	0006d703          	lhu	a4,0(a3) # 7f800000 <MEM_START-0x800000>
    80004f6c:	0147d79b          	srliw	a5,a5,0x14
    80004f70:	9f1d                	subw	a4,a4,a5
    80004f72:	1742                	slli	a4,a4,0x30
    80004f74:	9341                	srli	a4,a4,0x30
    80004f76:	02e707bb          	mulw	a5,a4,a4
    80004f7a:	0007069b          	sext.w	a3,a4
    80004f7e:	e119                	bnez	a0,80004f84 <softfloat_approxRecipSqrt32_1+0x4a>
    80004f80:	0017979b          	slliw	a5,a5,0x1
    80004f84:	1782                	slli	a5,a5,0x20
    80004f86:	1582                	slli	a1,a1,0x20
    80004f88:	9181                	srli	a1,a1,0x20
    80004f8a:	9381                	srli	a5,a5,0x20
    80004f8c:	0106951b          	slliw	a0,a3,0x10
    80004f90:	00e6961b          	slliw	a2,a3,0xe
    80004f94:	02b787b3          	mul	a5,a5,a1
    80004f98:	83dd                	srli	a5,a5,0x17
    80004f9a:	fff7c793          	not	a5,a5
    80004f9e:	1782                	slli	a5,a5,0x20
    80004fa0:	9381                	srli	a5,a5,0x20
    80004fa2:	02f70733          	mul	a4,a4,a5
    80004fa6:	02f787b3          	mul	a5,a5,a5
    80004faa:	8365                	srli	a4,a4,0x19
    80004fac:	9f29                	addw	a4,a4,a0
    80004fae:	0017569b          	srliw	a3,a4,0x1
    80004fb2:	0037559b          	srliw	a1,a4,0x3
    80004fb6:	9ead                	addw	a3,a3,a1
    80004fb8:	9e91                	subw	a3,a3,a2
    80004fba:	1682                	slli	a3,a3,0x20
    80004fbc:	9281                	srli	a3,a3,0x20
    80004fbe:	9381                	srli	a5,a5,0x20
    80004fc0:	02f687b3          	mul	a5,a3,a5
    80004fc4:	93c1                	srli	a5,a5,0x30
    80004fc6:	00f7053b          	addw	a0,a4,a5
    80004fca:	00055363          	bgez	a0,80004fd0 <softfloat_approxRecipSqrt32_1+0x96>
    80004fce:	8082                	ret
    80004fd0:	80000537          	lui	a0,0x80000
    80004fd4:	8082                	ret

0000000080004fd6 <softfloat_mul64To128M>:
    80004fd6:	57fd                	li	a5,-1
    80004fd8:	9381                	srli	a5,a5,0x20
    80004fda:	02055693          	srli	a3,a0,0x20
    80004fde:	0205d893          	srli	a7,a1,0x20
    80004fe2:	8d7d                	and	a0,a0,a5
    80004fe4:	8fed                	and	a5,a5,a1
    80004fe6:	02f68833          	mul	a6,a3,a5
    80004fea:	02a88733          	mul	a4,a7,a0
    80004fee:	9742                	add	a4,a4,a6
    80004ff0:	02f507b3          	mul	a5,a0,a5
    80004ff4:	4501                	li	a0,0
    80004ff6:	031685b3          	mul	a1,a3,a7
    80004ffa:	01077463          	bgeu	a4,a6,80005002 <softfloat_mul64To128M+0x2c>
    80004ffe:	4505                	li	a0,1
    80005000:	1502                	slli	a0,a0,0x20
    80005002:	02071693          	slli	a3,a4,0x20
    80005006:	97b6                	add	a5,a5,a3
    80005008:	00d7b6b3          	sltu	a3,a5,a3
    8000500c:	9301                	srli	a4,a4,0x20
    8000500e:	96ae                	add	a3,a3,a1
    80005010:	8f49                	or	a4,a4,a0
    80005012:	9736                	add	a4,a4,a3
    80005014:	0207d593          	srli	a1,a5,0x20
    80005018:	02075693          	srli	a3,a4,0x20
    8000501c:	c24c                	sw	a1,4(a2)
    8000501e:	c21c                	sw	a5,0(a2)
    80005020:	c654                	sw	a3,12(a2)
    80005022:	c618                	sw	a4,8(a2)
    80005024:	8082                	ret

0000000080005026 <softfloat_mulAddF32>:
    80005026:	7159                	addi	sp,sp,-112
    80005028:	fff68713          	addi	a4,a3,-1
    8000502c:	e4ce                	sd	s3,72(sp)
    8000502e:	16f9                	addi	a3,a3,-2
    80005030:	f45e                	sd	s7,40(sp)
    80005032:	0175599b          	srliw	s3,a0,0x17
    80005036:	00a5cbb3          	xor	s7,a1,a0
    8000503a:	008007b7          	lui	a5,0x800
    8000503e:	17fd                	addi	a5,a5,-1
    80005040:	f0a2                	sd	s0,96(sp)
    80005042:	eca6                	sd	s1,88(sp)
    80005044:	0016b413          	seqz	s0,a3
    80005048:	e8ca                	sd	s2,80(sp)
    8000504a:	e0d2                	sd	s4,64(sp)
    8000504c:	fc56                	sd	s5,56(sp)
    8000504e:	f85a                	sd	s6,48(sp)
    80005050:	f062                	sd	s8,32(sp)
    80005052:	ec66                	sd	s9,24(sp)
    80005054:	e86a                	sd	s10,16(sp)
    80005056:	0175da1b          	srliw	s4,a1,0x17
    8000505a:	00173713          	seqz	a4,a4
    8000505e:	01f65c1b          	srliw	s8,a2,0x1f
    80005062:	01765b1b          	srliw	s6,a2,0x17
    80005066:	03fbdb93          	srli	s7,s7,0x3f
    8000506a:	f486                	sd	ra,104(sp)
    8000506c:	0ff9f993          	andi	s3,s3,255
    80005070:	0ff00693          	li	a3,255
    80005074:	8932                	mv	s2,a2
    80005076:	00f57ab3          	and	s5,a0,a5
    8000507a:	0ffa7a13          	andi	s4,s4,255
    8000507e:	00f5fd33          	and	s10,a1,a5
    80005082:	00ec4c33          	xor	s8,s8,a4
    80005086:	0ffb7b13          	andi	s6,s6,255
    8000508a:	00f674b3          	and	s1,a2,a5
    8000508e:	008bccb3          	xor	s9,s7,s0
    80005092:	12d98663          	beq	s3,a3,800051be <softfloat_mulAddF32+0x198>
    80005096:	0eda0b63          	beq	s4,a3,8000518c <softfloat_mulAddF32+0x166>
    8000509a:	16db0063          	beq	s6,a3,800051fa <softfloat_mulAddF32+0x1d4>
    8000509e:	00099b63          	bnez	s3,800050b4 <softfloat_mulAddF32+0x8e>
    800050a2:	140a8f63          	beqz	s5,80005200 <softfloat_mulAddF32+0x1da>
    800050a6:	8556                	mv	a0,s5
    800050a8:	5b2000ef          	jal	ra,8000565a <softfloat_normSubnormalF32Sig>
    800050ac:	0005099b          	sext.w	s3,a0
    800050b0:	42055a93          	srai	s5,a0,0x20
    800050b4:	000a1b63          	bnez	s4,800050ca <softfloat_mulAddF32+0xa4>
    800050b8:	140d0463          	beqz	s10,80005200 <softfloat_mulAddF32+0x1da>
    800050bc:	856a                	mv	a0,s10
    800050be:	59c000ef          	jal	ra,8000565a <softfloat_normSubnormalF32Sig>
    800050c2:	00050a1b          	sext.w	s4,a0
    800050c6:	42055d13          	srai	s10,a0,0x20
    800050ca:	400007b7          	lui	a5,0x40000
    800050ce:	007a991b          	slliw	s2,s5,0x7
    800050d2:	007d1d1b          	slliw	s10,s10,0x7
    800050d6:	00f96933          	or	s2,s2,a5
    800050da:	00fd6d33          	or	s10,s10,a5
    800050de:	1902                	slli	s2,s2,0x20
    800050e0:	1d02                	slli	s10,s10,0x20
    800050e2:	02095913          	srli	s2,s2,0x20
    800050e6:	020d5d13          	srli	s10,s10,0x20
    800050ea:	03a90933          	mul	s2,s2,s10
    800050ee:	57fd                	li	a5,-1
    800050f0:	838d                	srli	a5,a5,0x3
    800050f2:	014989bb          	addw	s3,s3,s4
    800050f6:	1327f563          	bgeu	a5,s2,80005220 <softfloat_mulAddF32+0x1fa>
    800050fa:	f829899b          	addiw	s3,s3,-126
    800050fe:	000b1b63          	bnez	s6,80005114 <softfloat_mulAddF32+0xee>
    80005102:	14048e63          	beqz	s1,8000525e <softfloat_mulAddF32+0x238>
    80005106:	8526                	mv	a0,s1
    80005108:	552000ef          	jal	ra,8000565a <softfloat_normSubnormalF32Sig>
    8000510c:	00050b1b          	sext.w	s6,a0
    80005110:	42055493          	srai	s1,a0,0x20
    80005114:	0064979b          	slliw	a5,s1,0x6
    80005118:	200004b7          	lui	s1,0x20000
    8000511c:	8fc5                	or	a5,a5,s1
    8000511e:	416985bb          	subw	a1,s3,s6
    80005122:	872e                	mv	a4,a1
    80005124:	0007849b          	sext.w	s1,a5
    80005128:	119c0663          	beq	s8,s9,80005234 <softfloat_mulAddF32+0x20e>
    8000512c:	1482                	slli	s1,s1,0x20
    8000512e:	1405c063          	bltz	a1,8000526e <softfloat_mulAddF32+0x248>
    80005132:	0e059b63          	bnez	a1,80005228 <softfloat_mulAddF32+0x202>
    80005136:	40990a33          	sub	s4,s2,s1
    8000513a:	0c990a63          	beq	s2,s1,8000520e <softfloat_mulAddF32+0x1e8>
    8000513e:	000a5863          	bgez	s4,8000514e <softfloat_mulAddF32+0x128>
    80005142:	408b8433          	sub	s0,s7,s0
    80005146:	00143c93          	seqz	s9,s0
    8000514a:	41248a33          	sub	s4,s1,s2
    8000514e:	8552                	mv	a0,s4
    80005150:	6f1000ef          	jal	ra,80006040 <softfloat_countLeadingZeros64>
    80005154:	fff5079b          	addiw	a5,a0,-1
    80005158:	fdf5051b          	addiw	a0,a0,-33
    8000515c:	40f989bb          	subw	s3,s3,a5
    80005160:	02051793          	slli	a5,a0,0x20
    80005164:	00aa163b          	sllw	a2,s4,a0
    80005168:	1007cd63          	bltz	a5,80005282 <softfloat_mulAddF32+0x25c>
    8000516c:	7406                	ld	s0,96(sp)
    8000516e:	70a6                	ld	ra,104(sp)
    80005170:	64e6                	ld	s1,88(sp)
    80005172:	6946                	ld	s2,80(sp)
    80005174:	6a06                	ld	s4,64(sp)
    80005176:	7ae2                	ld	s5,56(sp)
    80005178:	7b42                	ld	s6,48(sp)
    8000517a:	7ba2                	ld	s7,40(sp)
    8000517c:	7c02                	ld	s8,32(sp)
    8000517e:	6d42                	ld	s10,16(sp)
    80005180:	85ce                	mv	a1,s3
    80005182:	8566                	mv	a0,s9
    80005184:	69a6                	ld	s3,72(sp)
    80005186:	6ce2                	ld	s9,24(sp)
    80005188:	6165                	addi	sp,sp,112
    8000518a:	ab51                	j	8000571e <softfloat_roundPackToF32>
    8000518c:	0159e9b3          	or	s3,s3,s5
    80005190:	020d0d63          	beqz	s10,800051ca <softfloat_mulAddF32+0x1a4>
    80005194:	5b5000ef          	jal	ra,80005f48 <softfloat_propagateNaNF32UI>
    80005198:	2501                	sext.w	a0,a0
    8000519a:	85ca                	mv	a1,s2
    8000519c:	5ad000ef          	jal	ra,80005f48 <softfloat_propagateNaNF32UI>
    800051a0:	2501                	sext.w	a0,a0
    800051a2:	70a6                	ld	ra,104(sp)
    800051a4:	7406                	ld	s0,96(sp)
    800051a6:	64e6                	ld	s1,88(sp)
    800051a8:	6946                	ld	s2,80(sp)
    800051aa:	69a6                	ld	s3,72(sp)
    800051ac:	6a06                	ld	s4,64(sp)
    800051ae:	7ae2                	ld	s5,56(sp)
    800051b0:	7b42                	ld	s6,48(sp)
    800051b2:	7ba2                	ld	s7,40(sp)
    800051b4:	7c02                	ld	s8,32(sp)
    800051b6:	6ce2                	ld	s9,24(sp)
    800051b8:	6d42                	ld	s10,16(sp)
    800051ba:	6165                	addi	sp,sp,112
    800051bc:	8082                	ret
    800051be:	fc0a9be3          	bnez	s5,80005194 <softfloat_mulAddF32+0x16e>
    800051c2:	033a0763          	beq	s4,s3,800051f0 <softfloat_mulAddF32+0x1ca>
    800051c6:	01aa69b3          	or	s3,s4,s10
    800051ca:	00098e63          	beqz	s3,800051e6 <softfloat_mulAddF32+0x1c0>
    800051ce:	01fc951b          	slliw	a0,s9,0x1f
    800051d2:	7f800737          	lui	a4,0x7f800
    800051d6:	0ff00793          	li	a5,255
    800051da:	9d39                	addw	a0,a0,a4
    800051dc:	fcfb13e3          	bne	s6,a5,800051a2 <softfloat_mulAddF32+0x17c>
    800051e0:	fccd                	bnez	s1,8000519a <softfloat_mulAddF32+0x174>
    800051e2:	fd9c00e3          	beq	s8,s9,800051a2 <softfloat_mulAddF32+0x17c>
    800051e6:	01026213          	ori	tp,tp,16
    800051ea:	7fc00537          	lui	a0,0x7fc00
    800051ee:	b775                	j	8000519a <softfloat_mulAddF32+0x174>
    800051f0:	fa0d12e3          	bnez	s10,80005194 <softfloat_mulAddF32+0x16e>
    800051f4:	01aa69b3          	or	s3,s4,s10
    800051f8:	bfc9                	j	800051ca <softfloat_mulAddF32+0x1a4>
    800051fa:	c881                	beqz	s1,8000520a <softfloat_mulAddF32+0x1e4>
    800051fc:	4501                	li	a0,0
    800051fe:	bf71                	j	8000519a <softfloat_mulAddF32+0x174>
    80005200:	009b67b3          	or	a5,s6,s1
    80005204:	e399                	bnez	a5,8000520a <softfloat_mulAddF32+0x1e4>
    80005206:	019c1463          	bne	s8,s9,8000520e <softfloat_mulAddF32+0x1e8>
    8000520a:	854a                	mv	a0,s2
    8000520c:	bf59                	j	800051a2 <softfloat_mulAddF32+0x17c>
    8000520e:	40d2571b          	sraiw	a4,tp,0xd
    80005212:	4789                	li	a5,2
    80005214:	80000537          	lui	a0,0x80000
    80005218:	f8f705e3          	beq	a4,a5,800051a2 <softfloat_mulAddF32+0x17c>
    8000521c:	4501                	li	a0,0
    8000521e:	b751                	j	800051a2 <softfloat_mulAddF32+0x17c>
    80005220:	f819899b          	addiw	s3,s3,-127
    80005224:	0906                	slli	s2,s2,0x1
    80005226:	bde1                	j	800050fe <softfloat_mulAddF32+0xd8>
    80005228:	8526                	mv	a0,s1
    8000522a:	7a2000ef          	jal	ra,800059cc <softfloat_shiftRightJam64>
    8000522e:	40a90a33          	sub	s4,s2,a0
    80005232:	bf31                	j	8000514e <softfloat_mulAddF32+0x128>
    80005234:	04b05f63          	blez	a1,80005292 <softfloat_mulAddF32+0x26c>
    80005238:	02049513          	slli	a0,s1,0x20
    8000523c:	790000ef          	jal	ra,800059cc <softfloat_shiftRightJam64>
    80005240:	02000593          	li	a1,32
    80005244:	954a                	add	a0,a0,s2
    80005246:	113000ef          	jal	ra,80005b58 <softfloat_shortShiftRightJam64>
    8000524a:	0005061b          	sext.w	a2,a0
    8000524e:	400007b7          	lui	a5,0x40000
    80005252:	f0f67de3          	bgeu	a2,a5,8000516c <softfloat_mulAddF32+0x146>
    80005256:	0016161b          	slliw	a2,a2,0x1
    8000525a:	39fd                	addiw	s3,s3,-1
    8000525c:	bf01                	j	8000516c <softfloat_mulAddF32+0x146>
    8000525e:	45fd                	li	a1,31
    80005260:	854a                	mv	a0,s2
    80005262:	0f7000ef          	jal	ra,80005b58 <softfloat_shortShiftRightJam64>
    80005266:	39fd                	addiw	s3,s3,-1
    80005268:	0005061b          	sext.w	a2,a0
    8000526c:	b701                	j	8000516c <softfloat_mulAddF32+0x146>
    8000526e:	413b05bb          	subw	a1,s6,s3
    80005272:	854a                	mv	a0,s2
    80005274:	758000ef          	jal	ra,800059cc <softfloat_shiftRightJam64>
    80005278:	40a48a33          	sub	s4,s1,a0
    8000527c:	89da                	mv	s3,s6
    8000527e:	8ce2                	mv	s9,s8
    80005280:	b5f9                	j	8000514e <softfloat_mulAddF32+0x128>
    80005282:	40a005bb          	negw	a1,a0
    80005286:	8552                	mv	a0,s4
    80005288:	0d1000ef          	jal	ra,80005b58 <softfloat_shortShiftRightJam64>
    8000528c:	0005061b          	sext.w	a2,a0
    80005290:	bdf1                	j	8000516c <softfloat_mulAddF32+0x146>
    80005292:	02000593          	li	a1,32
    80005296:	9d99                	subw	a1,a1,a4
    80005298:	854a                	mv	a0,s2
    8000529a:	732000ef          	jal	ra,800059cc <softfloat_shiftRightJam64>
    8000529e:	0095063b          	addw	a2,a0,s1
    800052a2:	89da                	mv	s3,s6
    800052a4:	b76d                	j	8000524e <softfloat_mulAddF32+0x228>

00000000800052a6 <softfloat_mulAddF64>:
    800052a6:	7135                	addi	sp,sp,-160
    800052a8:	fff68713          	addi	a4,a3,-1
    800052ac:	fcce                	sd	s3,120(sp)
    800052ae:	16f9                	addi	a3,a3,-2
    800052b0:	f0da                	sd	s6,96(sp)
    800052b2:	03455993          	srli	s3,a0,0x34
    800052b6:	00a5cb33          	xor	s6,a1,a0
    800052ba:	57fd                	li	a5,-1
    800052bc:	83b1                	srli	a5,a5,0xc
    800052be:	e922                	sd	s0,144(sp)
    800052c0:	e526                	sd	s1,136(sp)
    800052c2:	0016b413          	seqz	s0,a3
    800052c6:	e14a                	sd	s2,128(sp)
    800052c8:	f8d2                	sd	s4,112(sp)
    800052ca:	f4d6                	sd	s5,104(sp)
    800052cc:	ecde                	sd	s7,88(sp)
    800052ce:	e8e2                	sd	s8,80(sp)
    800052d0:	e4e6                	sd	s9,72(sp)
    800052d2:	e0ea                	sd	s10,64(sp)
    800052d4:	0345da13          	srli	s4,a1,0x34
    800052d8:	03f65b93          	srli	s7,a2,0x3f
    800052dc:	00173713          	seqz	a4,a4
    800052e0:	03465a93          	srli	s5,a2,0x34
    800052e4:	03fb5b13          	srli	s6,s6,0x3f
    800052e8:	ed06                	sd	ra,152(sp)
    800052ea:	fc6e                	sd	s11,56(sp)
    800052ec:	7ff9f993          	andi	s3,s3,2047
    800052f0:	7ff00693          	li	a3,2047
    800052f4:	8932                	mv	s2,a2
    800052f6:	00f57cb3          	and	s9,a0,a5
    800052fa:	7ffa7a13          	andi	s4,s4,2047
    800052fe:	00f5fc33          	and	s8,a1,a5
    80005302:	00ebcbb3          	xor	s7,s7,a4
    80005306:	7ffafa93          	andi	s5,s5,2047
    8000530a:	00f674b3          	and	s1,a2,a5
    8000530e:	008b4d33          	xor	s10,s6,s0
    80005312:	0ad98163          	beq	s3,a3,800053b4 <softfloat_mulAddF64+0x10e>
    80005316:	06da0763          	beq	s4,a3,80005384 <softfloat_mulAddF64+0xde>
    8000531a:	0cda8c63          	beq	s5,a3,800053f2 <softfloat_mulAddF64+0x14c>
    8000531e:	00099a63          	bnez	s3,80005332 <softfloat_mulAddF64+0x8c>
    80005322:	0c0c8b63          	beqz	s9,800053f8 <softfloat_mulAddF64+0x152>
    80005326:	8566                	mv	a0,s9
    80005328:	35a000ef          	jal	ra,80005682 <softfloat_normSubnormalF64Sig>
    8000532c:	0005099b          	sext.w	s3,a0
    80005330:	8cae                	mv	s9,a1
    80005332:	000a1a63          	bnez	s4,80005346 <softfloat_mulAddF64+0xa0>
    80005336:	0c0c0163          	beqz	s8,800053f8 <softfloat_mulAddF64+0x152>
    8000533a:	8562                	mv	a0,s8
    8000533c:	346000ef          	jal	ra,80005682 <softfloat_normSubnormalF64Sig>
    80005340:	00050a1b          	sext.w	s4,a0
    80005344:	8c2e                	mv	s8,a1
    80005346:	597d                	li	s2,-1
    80005348:	4d85                	li	s11,1
    8000534a:	1dfa                	slli	s11,s11,0x3e
    8000534c:	0c2e                	slli	s8,s8,0xb
    8000534e:	00ac9513          	slli	a0,s9,0xa
    80005352:	03f91593          	slli	a1,s2,0x3f
    80005356:	00bc65b3          	or	a1,s8,a1
    8000535a:	0810                	addi	a2,sp,16
    8000535c:	01b56533          	or	a0,a0,s11
    80005360:	c77ff0ef          	jal	ra,80004fd6 <softfloat_mul64To128M>
    80005364:	6c62                	ld	s8,24(sp)
    80005366:	014989bb          	addw	s3,s3,s4
    8000536a:	01bc77b3          	and	a5,s8,s11
    8000536e:	c7cd                	beqz	a5,80005418 <softfloat_mulAddF64+0x172>
    80005370:	c0298c9b          	addiw	s9,s3,-1022
    80005374:	8a66                	mv	s4,s9
    80005376:	120a9363          	bnez	s5,8000549c <softfloat_mulAddF64+0x1f6>
    8000537a:	20049863          	bnez	s1,8000558a <softfloat_mulAddF64+0x2e4>
    8000537e:	c0198c9b          	addiw	s9,s3,-1023
    80005382:	a05d                	j	80005428 <softfloat_mulAddF64+0x182>
    80005384:	0199e9b3          	or	s3,s3,s9
    80005388:	020c0c63          	beqz	s8,800053c0 <softfloat_mulAddF64+0x11a>
    8000538c:	3f7000ef          	jal	ra,80005f82 <softfloat_propagateNaNF64UI>
    80005390:	85ca                	mv	a1,s2
    80005392:	3f1000ef          	jal	ra,80005f82 <softfloat_propagateNaNF64UI>
    80005396:	60ea                	ld	ra,152(sp)
    80005398:	644a                	ld	s0,144(sp)
    8000539a:	64aa                	ld	s1,136(sp)
    8000539c:	690a                	ld	s2,128(sp)
    8000539e:	79e6                	ld	s3,120(sp)
    800053a0:	7a46                	ld	s4,112(sp)
    800053a2:	7aa6                	ld	s5,104(sp)
    800053a4:	7b06                	ld	s6,96(sp)
    800053a6:	6be6                	ld	s7,88(sp)
    800053a8:	6c46                	ld	s8,80(sp)
    800053aa:	6ca6                	ld	s9,72(sp)
    800053ac:	6d06                	ld	s10,64(sp)
    800053ae:	7de2                	ld	s11,56(sp)
    800053b0:	610d                	addi	sp,sp,160
    800053b2:	8082                	ret
    800053b4:	fc0c9ce3          	bnez	s9,8000538c <softfloat_mulAddF64+0xe6>
    800053b8:	033a0863          	beq	s4,s3,800053e8 <softfloat_mulAddF64+0x142>
    800053bc:	018a69b3          	or	s3,s4,s8
    800053c0:	00098e63          	beqz	s3,800053dc <softfloat_mulAddF64+0x136>
    800053c4:	7ff00793          	li	a5,2047
    800053c8:	03fd1513          	slli	a0,s10,0x3f
    800053cc:	03479713          	slli	a4,a5,0x34
    800053d0:	953a                	add	a0,a0,a4
    800053d2:	fcfa92e3          	bne	s5,a5,80005396 <softfloat_mulAddF64+0xf0>
    800053d6:	fccd                	bnez	s1,80005390 <softfloat_mulAddF64+0xea>
    800053d8:	fbab8fe3          	beq	s7,s10,80005396 <softfloat_mulAddF64+0xf0>
    800053dc:	01026213          	ori	tp,tp,16
    800053e0:	00fff537          	lui	a0,0xfff
    800053e4:	151e                	slli	a0,a0,0x27
    800053e6:	b76d                	j	80005390 <softfloat_mulAddF64+0xea>
    800053e8:	fa0c12e3          	bnez	s8,8000538c <softfloat_mulAddF64+0xe6>
    800053ec:	018a69b3          	or	s3,s4,s8
    800053f0:	bfc1                	j	800053c0 <softfloat_mulAddF64+0x11a>
    800053f2:	c881                	beqz	s1,80005402 <softfloat_mulAddF64+0x15c>
    800053f4:	4501                	li	a0,0
    800053f6:	bf69                	j	80005390 <softfloat_mulAddF64+0xea>
    800053f8:	009ae7b3          	or	a5,s5,s1
    800053fc:	e399                	bnez	a5,80005402 <softfloat_mulAddF64+0x15c>
    800053fe:	01ab9463          	bne	s7,s10,80005406 <softfloat_mulAddF64+0x160>
    80005402:	854a                	mv	a0,s2
    80005404:	bf49                	j	80005396 <softfloat_mulAddF64+0xf0>
    80005406:	40d2571b          	sraiw	a4,tp,0xd
    8000540a:	4789                	li	a5,2
    8000540c:	4501                	li	a0,0
    8000540e:	f8f714e3          	bne	a4,a5,80005396 <softfloat_mulAddF64+0xf0>
    80005412:	557d                	li	a0,-1
    80005414:	157e                	slli	a0,a0,0x3f
    80005416:	b741                	j	80005396 <softfloat_mulAddF64+0xf0>
    80005418:	c0198c9b          	addiw	s9,s3,-1023
    8000541c:	020a9363          	bnez	s5,80005442 <softfloat_mulAddF64+0x19c>
    80005420:	e0ed                	bnez	s1,80005502 <softfloat_mulAddF64+0x25c>
    80005422:	0c06                	slli	s8,s8,0x1
    80005424:	c0098c9b          	addiw	s9,s3,-1024
    80005428:	47d2                	lw	a5,20(sp)
    8000542a:	4742                	lw	a4,16(sp)
    8000542c:	8fd9                	or	a5,a5,a4
    8000542e:	2781                	sext.w	a5,a5
    80005430:	c399                	beqz	a5,80005436 <softfloat_mulAddF64+0x190>
    80005432:	001c6c13          	ori	s8,s8,1
    80005436:	8662                	mv	a2,s8
    80005438:	85e6                	mv	a1,s9
    8000543a:	856a                	mv	a0,s10
    8000543c:	3e4000ef          	jal	ra,80005820 <softfloat_roundPackToF64>
    80005440:	bf99                	j	80005396 <softfloat_mulAddF64+0xf0>
    80005442:	04aa                	slli	s1,s1,0xa
    80005444:	415c89bb          	subw	s3,s9,s5
    80005448:	01b4edb3          	or	s11,s1,s11
    8000544c:	0c09c763          	bltz	s3,8000551a <softfloat_mulAddF64+0x274>
    80005450:	0814                	addi	a3,sp,16
    80005452:	8636                	mv	a2,a3
    80005454:	85b6                	mv	a1,a3
    80005456:	4511                	li	a0,4
    80005458:	375000ef          	jal	ra,80005fcc <softfloat_addM>
    8000545c:	0e099a63          	bnez	s3,80005550 <softfloat_mulAddF64+0x2aa>
    80005460:	6c62                	ld	s8,24(sp)
    80005462:	0dab8e63          	beq	s7,s10,8000553e <softfloat_mulAddF64+0x298>
    80005466:	41bc07b3          	sub	a5,s8,s11
    8000546a:	15bc1b63          	bne	s8,s11,800055c0 <softfloat_mulAddF64+0x31a>
    8000546e:	47d2                	lw	a5,20(sp)
    80005470:	4742                	lw	a4,16(sp)
    80005472:	8fd9                	or	a5,a5,a4
    80005474:	2781                	sext.w	a5,a5
    80005476:	dbc1                	beqz	a5,80005406 <softfloat_mulAddF64+0x160>
    80005478:	ec02                	sd	zero,24(sp)
    8000547a:	6c62                	ld	s8,24(sp)
    8000547c:	4401                	li	s0,0
    8000547e:	000c1563          	bnez	s8,80005488 <softfloat_mulAddF64+0x1e2>
    80005482:	6c42                	ld	s8,16(sp)
    80005484:	04000413          	li	s0,64
    80005488:	8562                	mv	a0,s8
    8000548a:	3b7000ef          	jal	ra,80006040 <softfloat_countLeadingZeros64>
    8000548e:	008507bb          	addw	a5,a0,s0
    80005492:	fff7861b          	addiw	a2,a5,-1
    80005496:	ee21                	bnez	a2,800054ee <softfloat_mulAddF64+0x248>
    80005498:	3cfd                	addiw	s9,s9,-1
    8000549a:	b779                	j	80005428 <softfloat_mulAddF64+0x182>
    8000549c:	04aa                	slli	s1,s1,0xa
    8000549e:	415c89bb          	subw	s3,s9,s5
    800054a2:	01b4edb3          	or	s11,s1,s11
    800054a6:	fa09dbe3          	bgez	s3,8000545c <softfloat_mulAddF64+0x1b6>
    800054aa:	15ab8863          	beq	s7,s10,800055fa <softfloat_mulAddF64+0x354>
    800054ae:	17298063          	beq	s3,s2,8000560e <softfloat_mulAddF64+0x368>
    800054b2:	8562                	mv	a0,s8
    800054b4:	419a85bb          	subw	a1,s5,s9
    800054b8:	514000ef          	jal	ra,800059cc <softfloat_shiftRightJam64>
    800054bc:	8c2a                	mv	s8,a0
    800054be:	57fd                	li	a5,-1
    800054c0:	12f98263          	beq	s3,a5,800055e4 <softfloat_mulAddF64+0x33e>
    800054c4:	47d2                	lw	a5,20(sp)
    800054c6:	4742                	lw	a4,16(sp)
    800054c8:	418d8c33          	sub	s8,s11,s8
    800054cc:	8fd9                	or	a5,a5,a4
    800054ce:	2781                	sext.w	a5,a5
    800054d0:	c781                	beqz	a5,800054d8 <softfloat_mulAddF64+0x232>
    800054d2:	1c7d                	addi	s8,s8,-1
    800054d4:	001c6c13          	ori	s8,s8,1
    800054d8:	001c1793          	slli	a5,s8,0x1
    800054dc:	fffa8c9b          	addiw	s9,s5,-1
    800054e0:	8d5e                	mv	s10,s7
    800054e2:	f407cae3          	bltz	a5,80005436 <softfloat_mulAddF64+0x190>
    800054e6:	0c06                	slli	s8,s8,0x1
    800054e8:	ffea8c9b          	addiw	s9,s5,-2
    800054ec:	b7a9                	j	80005436 <softfloat_mulAddF64+0x190>
    800054ee:	0814                	addi	a3,sp,16
    800054f0:	40cc8cbb          	subw	s9,s9,a2
    800054f4:	85b6                	mv	a1,a3
    800054f6:	4511                	li	a0,4
    800054f8:	42c000ef          	jal	ra,80005924 <softfloat_shiftLeftM>
    800054fc:	3cfd                	addiw	s9,s9,-1
    800054fe:	6c62                	ld	s8,24(sp)
    80005500:	b725                	j	80005428 <softfloat_mulAddF64+0x182>
    80005502:	8526                	mv	a0,s1
    80005504:	17e000ef          	jal	ra,80005682 <softfloat_normSubnormalF64Sig>
    80005508:	05aa                	slli	a1,a1,0xa
    8000550a:	40ac89bb          	subw	s3,s9,a0
    8000550e:	00050a9b          	sext.w	s5,a0
    80005512:	01b5edb3          	or	s11,a1,s11
    80005516:	f209dde3          	bgez	s3,80005450 <softfloat_mulAddF64+0x1aa>
    8000551a:	0bab8f63          	beq	s7,s10,800055d8 <softfloat_mulAddF64+0x332>
    8000551e:	fff9c593          	not	a1,s3
    80005522:	0d298163          	beq	s3,s2,800055e4 <softfloat_mulAddF64+0x33e>
    80005526:	8562                	mv	a0,s8
    80005528:	4a4000ef          	jal	ra,800059cc <softfloat_shiftRightJam64>
    8000552c:	8c2a                	mv	s8,a0
    8000552e:	bf41                	j	800054be <softfloat_mulAddF64+0x218>
    80005530:	414a85bb          	subw	a1,s5,s4
    80005534:	8562                	mv	a0,s8
    80005536:	496000ef          	jal	ra,800059cc <softfloat_shiftRightJam64>
    8000553a:	8c2a                	mv	s8,a0
    8000553c:	8cd6                	mv	s9,s5
    8000553e:	9c6e                	add	s8,s8,s11
    80005540:	f40c5ce3          	bgez	s8,80005498 <softfloat_mulAddF64+0x1f2>
    80005544:	8562                	mv	a0,s8
    80005546:	4585                	li	a1,1
    80005548:	610000ef          	jal	ra,80005b58 <softfloat_shortShiftRightJam64>
    8000554c:	8c2a                	mv	s8,a0
    8000554e:	bde9                	j	80005428 <softfloat_mulAddF64+0x182>
    80005550:	1014                	addi	a3,sp,32
    80005552:	864e                	mv	a2,s3
    80005554:	85b6                	mv	a1,a3
    80005556:	4511                	li	a0,4
    80005558:	f46e                	sd	s11,40(sp)
    8000555a:	f002                	sd	zero,32(sp)
    8000555c:	492000ef          	jal	ra,800059ee <softfloat_shiftRightJamM>
    80005560:	05ab8863          	beq	s7,s10,800055b0 <softfloat_mulAddF64+0x30a>
    80005564:	0814                	addi	a3,sp,16
    80005566:	1010                	addi	a2,sp,32
    80005568:	85b6                	mv	a1,a3
    8000556a:	4511                	li	a0,4
    8000556c:	66c000ef          	jal	ra,80005bd8 <softfloat_subM>
    80005570:	4785                	li	a5,1
    80005572:	f0f984e3          	beq	s3,a5,8000547a <softfloat_mulAddF64+0x1d4>
    80005576:	6c62                	ld	s8,24(sp)
    80005578:	17fa                	slli	a5,a5,0x3e
    8000557a:	fffc871b          	addiw	a4,s9,-1
    8000557e:	00fc77b3          	and	a5,s8,a5
    80005582:	e7c1                	bnez	a5,8000560a <softfloat_mulAddF64+0x364>
    80005584:	0c06                	slli	s8,s8,0x1
    80005586:	3cf9                	addiw	s9,s9,-2
    80005588:	b545                	j	80005428 <softfloat_mulAddF64+0x182>
    8000558a:	8526                	mv	a0,s1
    8000558c:	0f6000ef          	jal	ra,80005682 <softfloat_normSubnormalF64Sig>
    80005590:	05aa                	slli	a1,a1,0xa
    80005592:	40ac89bb          	subw	s3,s9,a0
    80005596:	00050a9b          	sext.w	s5,a0
    8000559a:	01b5edb3          	or	s11,a1,s11
    8000559e:	ea09dfe3          	bgez	s3,8000545c <softfloat_mulAddF64+0x1b6>
    800055a2:	f9ab87e3          	beq	s7,s10,80005530 <softfloat_mulAddF64+0x28a>
    800055a6:	07298463          	beq	s3,s2,8000560e <softfloat_mulAddF64+0x368>
    800055aa:	414a85bb          	subw	a1,s5,s4
    800055ae:	bfa5                	j	80005526 <softfloat_mulAddF64+0x280>
    800055b0:	0814                	addi	a3,sp,16
    800055b2:	1010                	addi	a2,sp,32
    800055b4:	85b6                	mv	a1,a3
    800055b6:	4511                	li	a0,4
    800055b8:	215000ef          	jal	ra,80005fcc <softfloat_addM>
    800055bc:	6c62                	ld	s8,24(sp)
    800055be:	b749                	j	80005540 <softfloat_mulAddF64+0x29a>
    800055c0:	ec3e                	sd	a5,24(sp)
    800055c2:	ea07dce3          	bgez	a5,8000547a <softfloat_mulAddF64+0x1d4>
    800055c6:	408b0433          	sub	s0,s6,s0
    800055ca:	080c                	addi	a1,sp,16
    800055cc:	4511                	li	a0,4
    800055ce:	00143d13          	seqz	s10,s0
    800055d2:	04c000ef          	jal	ra,8000561e <softfloat_negXM>
    800055d6:	b555                	j	8000547a <softfloat_mulAddF64+0x1d4>
    800055d8:	fff9c593          	not	a1,s3
    800055dc:	fda1                	bnez	a1,80005534 <softfloat_mulAddF64+0x28e>
    800055de:	8cd6                	mv	s9,s5
    800055e0:	9c6e                	add	s8,s8,s11
    800055e2:	bfb9                	j	80005540 <softfloat_mulAddF64+0x29a>
    800055e4:	0814                	addi	a3,sp,16
    800055e6:	8636                	mv	a2,a3
    800055e8:	100c                	addi	a1,sp,32
    800055ea:	4511                	li	a0,4
    800055ec:	8cd6                	mv	s9,s5
    800055ee:	f46e                	sd	s11,40(sp)
    800055f0:	f002                	sd	zero,32(sp)
    800055f2:	8d5e                	mv	s10,s7
    800055f4:	5e4000ef          	jal	ra,80005bd8 <softfloat_subM>
    800055f8:	b549                	j	8000547a <softfloat_mulAddF64+0x1d4>
    800055fa:	8562                	mv	a0,s8
    800055fc:	419a85bb          	subw	a1,s5,s9
    80005600:	3cc000ef          	jal	ra,800059cc <softfloat_shiftRightJam64>
    80005604:	8c2a                	mv	s8,a0
    80005606:	8cd6                	mv	s9,s5
    80005608:	bfe1                	j	800055e0 <softfloat_mulAddF64+0x33a>
    8000560a:	8cba                	mv	s9,a4
    8000560c:	bd31                	j	80005428 <softfloat_mulAddF64+0x182>
    8000560e:	0814                	addi	a3,sp,16
    80005610:	4605                	li	a2,1
    80005612:	85b6                	mv	a1,a3
    80005614:	4511                	li	a0,4
    80005616:	4f0000ef          	jal	ra,80005b06 <softfloat_shortShiftRightM>
    8000561a:	59fd                	li	s3,-1
    8000561c:	b54d                	j	800054be <softfloat_mulAddF64+0x218>

000000008000561e <softfloat_negXM>:
    8000561e:	419c                	lw	a5,0(a1)
    80005620:	4685                	li	a3,1
    80005622:	40f0073b          	negw	a4,a5
    80005626:	c198                	sw	a4,0(a1)
    80005628:	02d50863          	beq	a0,a3,80005658 <softfloat_negXM+0x3a>
    8000562c:	ffe5061b          	addiw	a2,a0,-2
    80005630:	1602                	slli	a2,a2,0x20
    80005632:	00858793          	addi	a5,a1,8 # ffffffff80000008 <_payload_end+0xfffffffeffc28264>
    80005636:	8279                	srli	a2,a2,0x1e
    80005638:	0591                	addi	a1,a1,4
    8000563a:	963e                	add	a2,a2,a5
    8000563c:	419c                	lw	a5,0(a1)
    8000563e:	00173713          	seqz	a4,a4
    80005642:	40e00733          	neg	a4,a4
    80005646:	8ef9                	and	a3,a3,a4
    80005648:	fff7c793          	not	a5,a5
    8000564c:	00d7873b          	addw	a4,a5,a3
    80005650:	c198                	sw	a4,0(a1)
    80005652:	0591                	addi	a1,a1,4
    80005654:	feb614e3          	bne	a2,a1,8000563c <softfloat_negXM+0x1e>
    80005658:	8082                	ret

000000008000565a <softfloat_normSubnormalF32Sig>:
    8000565a:	1101                	addi	sp,sp,-32
    8000565c:	e822                	sd	s0,16(sp)
    8000565e:	ec06                	sd	ra,24(sp)
    80005660:	842a                	mv	s0,a0
    80005662:	1ad000ef          	jal	ra,8000600e <softfloat_countLeadingZeros32>
    80005666:	ff85079b          	addiw	a5,a0,-8
    8000566a:	4505                	li	a0,1
    8000566c:	9d1d                	subw	a0,a0,a5
    8000566e:	00f4143b          	sllw	s0,s0,a5
    80005672:	1502                	slli	a0,a0,0x20
    80005674:	1402                	slli	s0,s0,0x20
    80005676:	9101                	srli	a0,a0,0x20
    80005678:	60e2                	ld	ra,24(sp)
    8000567a:	8d41                	or	a0,a0,s0
    8000567c:	6442                	ld	s0,16(sp)
    8000567e:	6105                	addi	sp,sp,32
    80005680:	8082                	ret

0000000080005682 <softfloat_normSubnormalF64Sig>:
    80005682:	1101                	addi	sp,sp,-32
    80005684:	e822                	sd	s0,16(sp)
    80005686:	ec06                	sd	ra,24(sp)
    80005688:	842a                	mv	s0,a0
    8000568a:	1b7000ef          	jal	ra,80006040 <softfloat_countLeadingZeros64>
    8000568e:	ff55059b          	addiw	a1,a0,-11
    80005692:	4705                	li	a4,1
    80005694:	60e2                	ld	ra,24(sp)
    80005696:	9f0d                	subw	a4,a4,a1
    80005698:	00b415b3          	sll	a1,s0,a1
    8000569c:	6442                	ld	s0,16(sp)
    8000569e:	c03a                	sw	a4,0(sp)
    800056a0:	6502                	ld	a0,0(sp)
    800056a2:	6105                	addi	sp,sp,32
    800056a4:	8082                	ret

00000000800056a6 <softfloat_roundMToUI64>:
    800056a6:	0085e783          	lwu	a5,8(a1)
    800056aa:	0045e883          	lwu	a7,4(a1)
    800056ae:	ffb67813          	andi	a6,a2,-5
    800056b2:	1782                	slli	a5,a5,0x20
    800056b4:	872a                	mv	a4,a0
    800056b6:	418c                	lw	a1,0(a1)
    800056b8:	0117e533          	or	a0,a5,a7
    800056bc:	00080e63          	beqz	a6,800056d8 <softfloat_roundMToUI64+0x32>
    800056c0:	cb0d                	beqz	a4,800056f2 <softfloat_roundMToUI64+0x4c>
    800056c2:	02059793          	slli	a5,a1,0x20
    800056c6:	9381                	srli	a5,a5,0x20
    800056c8:	8fc9                	or	a5,a5,a0
    800056ca:	c7b1                	beqz	a5,80005716 <softfloat_roundMToUI64+0x70>
    800056cc:	4789                	li	a5,2
    800056ce:	02f60d63          	beq	a2,a5,80005708 <softfloat_roundMToUI64+0x62>
    800056d2:	e91d                	bnez	a0,80005708 <softfloat_roundMToUI64+0x62>
    800056d4:	e999                	bnez	a1,800056ea <softfloat_roundMToUI64+0x44>
    800056d6:	8082                	ret
    800056d8:	0205c163          	bltz	a1,800056fa <softfloat_roundMToUI64+0x54>
    800056dc:	df65                	beqz	a4,800056d4 <softfloat_roundMToUI64+0x2e>
    800056de:	d97d                	beqz	a0,800056d4 <softfloat_roundMToUI64+0x2e>
    800056e0:	a025                	j	80005708 <softfloat_roundMToUI64+0x62>
    800056e2:	ee05                	bnez	a2,8000571a <softfloat_roundMToUI64+0x74>
    800056e4:	9979                	andi	a0,a0,-2
    800056e6:	c311                	beqz	a4,800056ea <softfloat_roundMToUI64+0x44>
    800056e8:	e105                	bnez	a0,80005708 <softfloat_roundMToUI64+0x62>
    800056ea:	d6f5                	beqz	a3,800056d6 <softfloat_roundMToUI64+0x30>
    800056ec:	00126213          	ori	tp,tp,1
    800056f0:	8082                	ret
    800056f2:	478d                	li	a5,3
    800056f4:	fef610e3          	bne	a2,a5,800056d4 <softfloat_roundMToUI64+0x2e>
    800056f8:	ddf9                	beqz	a1,800056d6 <softfloat_roundMToUI64+0x30>
    800056fa:	0505                	addi	a0,a0,1
    800056fc:	c511                	beqz	a0,80005708 <softfloat_roundMToUI64+0x62>
    800056fe:	800007b7          	lui	a5,0x80000
    80005702:	fef580e3          	beq	a1,a5,800056e2 <softfloat_roundMToUI64+0x3c>
    80005706:	d779                	beqz	a4,800056d4 <softfloat_roundMToUI64+0x2e>
    80005708:	01026213          	ori	tp,tp,16
    8000570c:	00174513          	xori	a0,a4,1
    80005710:	40a00533          	neg	a0,a0
    80005714:	8082                	ret
    80005716:	4501                	li	a0,0
    80005718:	8082                	ret
    8000571a:	f77d                	bnez	a4,80005708 <softfloat_roundMToUI64+0x62>
    8000571c:	b7f9                	j	800056ea <softfloat_roundMToUI64+0x44>

000000008000571e <softfloat_roundPackToF32>:
    8000571e:	1101                	addi	sp,sp,-32
    80005720:	e426                	sd	s1,8(sp)
    80005722:	40d2549b          	sraiw	s1,tp,0xd
    80005726:	e822                	sd	s0,16(sp)
    80005728:	e04a                	sd	s2,0(sp)
    8000572a:	ec06                	sd	ra,24(sp)
    8000572c:	ffb4f793          	andi	a5,s1,-5
    80005730:	842a                	mv	s0,a0
    80005732:	04000913          	li	s2,64
    80005736:	c799                	beqz	a5,80005744 <softfloat_roundPackToF32+0x26>
    80005738:	00153793          	seqz	a5,a0
    8000573c:	0789                	addi	a5,a5,2
    8000573e:	4901                	li	s2,0
    80005740:	0a978963          	beq	a5,s1,800057f2 <softfloat_roundPackToF32+0xd4>
    80005744:	0fc00713          	li	a4,252
    80005748:	07f67793          	andi	a5,a2,127
    8000574c:	02b77963          	bgeu	a4,a1,8000577e <softfloat_roundPackToF32+0x60>
    80005750:	0605c763          	bltz	a1,800057be <softfloat_roundPackToF32+0xa0>
    80005754:	0fd00713          	li	a4,253
    80005758:	08e58863          	beq	a1,a4,800057e8 <softfloat_roundPackToF32+0xca>
    8000575c:	00526213          	ori	tp,tp,5
    80005760:	01f4151b          	slliw	a0,s0,0x1f
    80005764:	7f800437          	lui	s0,0x7f800
    80005768:	60e2                	ld	ra,24(sp)
    8000576a:	9d21                	addw	a0,a0,s0
    8000576c:	6442                	ld	s0,16(sp)
    8000576e:	00193913          	seqz	s2,s2
    80005772:	64a2                	ld	s1,8(sp)
    80005774:	4125053b          	subw	a0,a0,s2
    80005778:	6902                	ld	s2,0(sp)
    8000577a:	6105                	addi	sp,sp,32
    8000577c:	8082                	ret
    8000577e:	00c9063b          	addw	a2,s2,a2
    80005782:	0076561b          	srliw	a2,a2,0x7
    80005786:	cf89                	beqz	a5,800057a0 <softfloat_roundPackToF32+0x82>
    80005788:	00126213          	ori	tp,tp,1
    8000578c:	fc078793          	addi	a5,a5,-64 # ffffffff7fffffc0 <_payload_end+0xfffffffeffc2821c>
    80005790:	0014b493          	seqz	s1,s1
    80005794:	0017b793          	seqz	a5,a5
    80005798:	8cfd                	and	s1,s1,a5
    8000579a:	fff4c493          	not	s1,s1
    8000579e:	8e65                	and	a2,a2,s1
    800057a0:	4781                	li	a5,0
    800057a2:	ea19                	bnez	a2,800057b8 <softfloat_roundPackToF32+0x9a>
    800057a4:	60e2                	ld	ra,24(sp)
    800057a6:	01f4151b          	slliw	a0,s0,0x1f
    800057aa:	6442                	ld	s0,16(sp)
    800057ac:	9d31                	addw	a0,a0,a2
    800057ae:	64a2                	ld	s1,8(sp)
    800057b0:	6902                	ld	s2,0(sp)
    800057b2:	9d3d                	addw	a0,a0,a5
    800057b4:	6105                	addi	sp,sp,32
    800057b6:	8082                	ret
    800057b8:	0175979b          	slliw	a5,a1,0x17
    800057bc:	b7e5                	j	800057a4 <softfloat_roundPackToF32+0x86>
    800057be:	57fd                	li	a5,-1
    800057c0:	02f58c63          	beq	a1,a5,800057f8 <softfloat_roundPackToF32+0xda>
    800057c4:	8532                	mv	a0,a2
    800057c6:	40b005bb          	negw	a1,a1
    800057ca:	1e0000ef          	jal	ra,800059aa <softfloat_shiftRightJam32>
    800057ce:	07f57793          	andi	a5,a0,127
    800057d2:	0005061b          	sext.w	a2,a0
    800057d6:	cf9d                	beqz	a5,80005814 <softfloat_roundPackToF32+0xf6>
    800057d8:	00226213          	ori	tp,tp,2
    800057dc:	00c9063b          	addw	a2,s2,a2
    800057e0:	0076561b          	srliw	a2,a2,0x7
    800057e4:	4581                	li	a1,0
    800057e6:	b74d                	j	80005788 <softfloat_roundPackToF32+0x6a>
    800057e8:	00c9063b          	addw	a2,s2,a2
    800057ec:	f8065be3          	bgez	a2,80005782 <softfloat_roundPackToF32+0x64>
    800057f0:	b7b5                	j	8000575c <softfloat_roundPackToF32+0x3e>
    800057f2:	07f00913          	li	s2,127
    800057f6:	b7b9                	j	80005744 <softfloat_roundPackToF32+0x26>
    800057f8:	00c907bb          	addw	a5,s2,a2
    800057fc:	fc07d4e3          	bgez	a5,800057c4 <softfloat_roundPackToF32+0xa6>
    80005800:	4585                	li	a1,1
    80005802:	8532                	mv	a0,a2
    80005804:	1a6000ef          	jal	ra,800059aa <softfloat_shiftRightJam32>
    80005808:	07f57793          	andi	a5,a0,127
    8000580c:	0125063b          	addw	a2,a0,s2
    80005810:	4581                	li	a1,0
    80005812:	bf85                	j	80005782 <softfloat_roundPackToF32+0x64>
    80005814:	00c9063b          	addw	a2,s2,a2
    80005818:	0076561b          	srliw	a2,a2,0x7
    8000581c:	4581                	li	a1,0
    8000581e:	b749                	j	800057a0 <softfloat_roundPackToF32+0x82>

0000000080005820 <softfloat_roundPackToF64>:
    80005820:	1101                	addi	sp,sp,-32
    80005822:	e426                	sd	s1,8(sp)
    80005824:	40d2549b          	sraiw	s1,tp,0xd
    80005828:	e822                	sd	s0,16(sp)
    8000582a:	ec06                	sd	ra,24(sp)
    8000582c:	e04a                	sd	s2,0(sp)
    8000582e:	ffb4f793          	andi	a5,s1,-5
    80005832:	842a                	mv	s0,a0
    80005834:	20000693          	li	a3,512
    80005838:	c799                	beqz	a5,80005846 <softfloat_roundPackToF64+0x26>
    8000583a:	00153793          	seqz	a5,a0
    8000583e:	0789                	addi	a5,a5,2
    80005840:	4681                	li	a3,0
    80005842:	0a978b63          	beq	a5,s1,800058f8 <softfloat_roundPackToF64+0xd8>
    80005846:	03059793          	slli	a5,a1,0x30
    8000584a:	93c1                	srli	a5,a5,0x30
    8000584c:	7fc00513          	li	a0,2044
    80005850:	3ff67713          	andi	a4,a2,1023
    80005854:	02f57963          	bgeu	a0,a5,80005886 <softfloat_roundPackToF64+0x66>
    80005858:	0605c663          	bltz	a1,800058c4 <softfloat_roundPackToF64+0xa4>
    8000585c:	7fd00793          	li	a5,2045
    80005860:	08f58863          	beq	a1,a5,800058f0 <softfloat_roundPackToF64+0xd0>
    80005864:	00526213          	ori	tp,tp,5
    80005868:	03f41513          	slli	a0,s0,0x3f
    8000586c:	7ff00413          	li	s0,2047
    80005870:	1452                	slli	s0,s0,0x34
    80005872:	60e2                	ld	ra,24(sp)
    80005874:	9522                	add	a0,a0,s0
    80005876:	6442                	ld	s0,16(sp)
    80005878:	0016b693          	seqz	a3,a3
    8000587c:	64a2                	ld	s1,8(sp)
    8000587e:	6902                	ld	s2,0(sp)
    80005880:	8d15                	sub	a0,a0,a3
    80005882:	6105                	addi	sp,sp,32
    80005884:	8082                	ret
    80005886:	9636                	add	a2,a2,a3
    80005888:	8229                	srli	a2,a2,0xa
    8000588a:	cf09                	beqz	a4,800058a4 <softfloat_roundPackToF64+0x84>
    8000588c:	00126213          	ori	tp,tp,1
    80005890:	e0070713          	addi	a4,a4,-512 # 7f7ffe00 <MEM_START-0x800200>
    80005894:	0014b493          	seqz	s1,s1
    80005898:	00173713          	seqz	a4,a4
    8000589c:	8f65                	and	a4,a4,s1
    8000589e:	fff74713          	not	a4,a4
    800058a2:	8e79                	and	a2,a2,a4
    800058a4:	4781                	li	a5,0
    800058a6:	ee01                	bnez	a2,800058be <softfloat_roundPackToF64+0x9e>
    800058a8:	03f41513          	slli	a0,s0,0x3f
    800058ac:	60e2                	ld	ra,24(sp)
    800058ae:	6442                	ld	s0,16(sp)
    800058b0:	962a                	add	a2,a2,a0
    800058b2:	64a2                	ld	s1,8(sp)
    800058b4:	6902                	ld	s2,0(sp)
    800058b6:	00f60533          	add	a0,a2,a5
    800058ba:	6105                	addi	sp,sp,32
    800058bc:	8082                	ret
    800058be:	03459793          	slli	a5,a1,0x34
    800058c2:	b7dd                	j	800058a8 <softfloat_roundPackToF64+0x88>
    800058c4:	02069913          	slli	s2,a3,0x20
    800058c8:	57fd                	li	a5,-1
    800058ca:	02095913          	srli	s2,s2,0x20
    800058ce:	02f58863          	beq	a1,a5,800058fe <softfloat_roundPackToF64+0xde>
    800058d2:	40b005bb          	negw	a1,a1
    800058d6:	8532                	mv	a0,a2
    800058d8:	0f4000ef          	jal	ra,800059cc <softfloat_shiftRightJam64>
    800058dc:	3ff57713          	andi	a4,a0,1023
    800058e0:	cf0d                	beqz	a4,8000591a <softfloat_roundPackToF64+0xfa>
    800058e2:	00226213          	ori	tp,tp,2
    800058e6:	00a90633          	add	a2,s2,a0
    800058ea:	8229                	srli	a2,a2,0xa
    800058ec:	4581                	li	a1,0
    800058ee:	bf79                	j	8000588c <softfloat_roundPackToF64+0x6c>
    800058f0:	9636                	add	a2,a2,a3
    800058f2:	f8065be3          	bgez	a2,80005888 <softfloat_roundPackToF64+0x68>
    800058f6:	b7bd                	j	80005864 <softfloat_roundPackToF64+0x44>
    800058f8:	3ff00693          	li	a3,1023
    800058fc:	b7a9                	j	80005846 <softfloat_roundPackToF64+0x26>
    800058fe:	012607b3          	add	a5,a2,s2
    80005902:	fc07d8e3          	bgez	a5,800058d2 <softfloat_roundPackToF64+0xb2>
    80005906:	4585                	li	a1,1
    80005908:	8532                	mv	a0,a2
    8000590a:	0c2000ef          	jal	ra,800059cc <softfloat_shiftRightJam64>
    8000590e:	3ff57713          	andi	a4,a0,1023
    80005912:	00a90633          	add	a2,s2,a0
    80005916:	4581                	li	a1,0
    80005918:	bf85                	j	80005888 <softfloat_roundPackToF64+0x68>
    8000591a:	00a90633          	add	a2,s2,a0
    8000591e:	8229                	srli	a2,a2,0xa
    80005920:	4581                	li	a1,0
    80005922:	b749                	j	800058a4 <softfloat_roundPackToF64+0x84>

0000000080005924 <softfloat_shiftLeftM>:
    80005924:	1101                	addi	sp,sp,-32
    80005926:	e822                	sd	s0,16(sp)
    80005928:	e426                	sd	s1,8(sp)
    8000592a:	ec06                	sd	ra,24(sp)
    8000592c:	0056549b          	srliw	s1,a2,0x5
    80005930:	8436                	mv	s0,a3
    80005932:	04a4f263          	bgeu	s1,a0,80005976 <softfloat_shiftLeftM+0x52>
    80005936:	0056569b          	srliw	a3,a2,0x5
    8000593a:	8a7d                	andi	a2,a2,31
    8000593c:	40d5083b          	subw	a6,a0,a3
    80005940:	ee21                	bnez	a2,80005998 <softfloat_shiftLeftM+0x74>
    80005942:	fff8079b          	addiw	a5,a6,-1
    80005946:	02079693          	slli	a3,a5,0x20
    8000594a:	fff5079b          	addiw	a5,a0,-1
    8000594e:	9281                	srli	a3,a3,0x20
    80005950:	1782                	slli	a5,a5,0x20
    80005952:	00269613          	slli	a2,a3,0x2
    80005956:	9381                	srli	a5,a5,0x20
    80005958:	fff6c693          	not	a3,a3
    8000595c:	00c58733          	add	a4,a1,a2
    80005960:	078a                	slli	a5,a5,0x2
    80005962:	068a                	slli	a3,a3,0x2
    80005964:	97a2                	add	a5,a5,s0
    80005966:	96ba                	add	a3,a3,a4
    80005968:	4310                	lw	a2,0(a4)
    8000596a:	1771                	addi	a4,a4,-4
    8000596c:	17f1                	addi	a5,a5,-4
    8000596e:	c3d0                	sw	a2,4(a5)
    80005970:	fed71ce3          	bne	a4,a3,80005968 <softfloat_shiftLeftM+0x44>
    80005974:	8526                	mv	a0,s1
    80005976:	fff5079b          	addiw	a5,a0,-1
    8000597a:	1782                	slli	a5,a5,0x20
    8000597c:	9381                	srli	a5,a5,0x20
    8000597e:	0785                	addi	a5,a5,1
    80005980:	078a                	slli	a5,a5,0x2
    80005982:	97a2                	add	a5,a5,s0
    80005984:	0411                	addi	s0,s0,4
    80005986:	fe042e23          	sw	zero,-4(s0) # 7f7ffffc <MEM_START-0x800004>
    8000598a:	fe879de3          	bne	a5,s0,80005984 <softfloat_shiftLeftM+0x60>
    8000598e:	60e2                	ld	ra,24(sp)
    80005990:	6442                	ld	s0,16(sp)
    80005992:	64a2                	ld	s1,8(sp)
    80005994:	6105                	addi	sp,sp,32
    80005996:	8082                	ret
    80005998:	1682                	slli	a3,a3,0x20
    8000599a:	82f9                	srli	a3,a3,0x1e
    8000599c:	8542                	mv	a0,a6
    8000599e:	96a2                	add	a3,a3,s0
    800059a0:	118000ef          	jal	ra,80005ab8 <softfloat_shortShiftLeftM>
    800059a4:	8526                	mv	a0,s1
    800059a6:	f8e1                	bnez	s1,80005976 <softfloat_shiftLeftM+0x52>
    800059a8:	b7dd                	j	8000598e <softfloat_shiftLeftM+0x6a>

00000000800059aa <softfloat_shiftRightJam32>:
    800059aa:	47f9                	li	a5,30
    800059ac:	00b7ed63          	bltu	a5,a1,800059c6 <softfloat_shiftRightJam32+0x1c>
    800059b0:	40b007bb          	negw	a5,a1
    800059b4:	00f517bb          	sllw	a5,a0,a5
    800059b8:	00f037b3          	snez	a5,a5
    800059bc:	00b5553b          	srlw	a0,a0,a1
    800059c0:	8d5d                	or	a0,a0,a5
    800059c2:	2501                	sext.w	a0,a0
    800059c4:	8082                	ret
    800059c6:	00a03533          	snez	a0,a0
    800059ca:	8082                	ret

00000000800059cc <softfloat_shiftRightJam64>:
    800059cc:	03e00793          	li	a5,62
    800059d0:	00b7ec63          	bltu	a5,a1,800059e8 <softfloat_shiftRightJam64+0x1c>
    800059d4:	40b007bb          	negw	a5,a1
    800059d8:	00f517b3          	sll	a5,a0,a5
    800059dc:	00f037b3          	snez	a5,a5
    800059e0:	00b55533          	srl	a0,a0,a1
    800059e4:	8d5d                	or	a0,a0,a5
    800059e6:	8082                	ret
    800059e8:	00a03533          	snez	a0,a0
    800059ec:	8082                	ret

00000000800059ee <softfloat_shiftRightJamM>:
    800059ee:	7179                	addi	sp,sp,-48
    800059f0:	ec26                	sd	s1,24(sp)
    800059f2:	e44e                	sd	s3,8(sp)
    800059f4:	f406                	sd	ra,40(sp)
    800059f6:	f022                	sd	s0,32(sp)
    800059f8:	e84a                	sd	s2,16(sp)
    800059fa:	0056549b          	srliw	s1,a2,0x5
    800059fe:	89b6                	mv	s3,a3
    80005a00:	ccc9                	beqz	s1,80005a9a <softfloat_shiftRightJamM+0xac>
    80005a02:	0056541b          	srliw	s0,a2,0x5
    80005a06:	08956d63          	bltu	a0,s1,80005aa0 <softfloat_shiftRightJamM+0xb2>
    80005a0a:	fff4071b          	addiw	a4,s0,-1
    80005a0e:	1702                	slli	a4,a4,0x20
    80005a10:	9301                	srli	a4,a4,0x20
    80005a12:	0705                	addi	a4,a4,1
    80005a14:	070a                	slli	a4,a4,0x2
    80005a16:	972e                	add	a4,a4,a1
    80005a18:	87ae                	mv	a5,a1
    80005a1a:	a019                	j	80005a20 <softfloat_shiftRightJamM+0x32>
    80005a1c:	00e78563          	beq	a5,a4,80005a26 <softfloat_shiftRightJamM+0x38>
    80005a20:	4384                	lw	s1,0(a5)
    80005a22:	0791                	addi	a5,a5,4
    80005a24:	dce5                	beqz	s1,80005a1c <softfloat_shiftRightJamM+0x2e>
    80005a26:	87ce                	mv	a5,s3
    80005a28:	02a47f63          	bgeu	s0,a0,80005a66 <softfloat_shiftRightJamM+0x78>
    80005a2c:	02041793          	slli	a5,s0,0x20
    80005a30:	83f9                	srli	a5,a5,0x1e
    80005a32:	4085093b          	subw	s2,a0,s0
    80005a36:	8a7d                	andi	a2,a2,31
    80005a38:	95be                	add	a1,a1,a5
    80005a3a:	0009051b          	sext.w	a0,s2
    80005a3e:	e625                	bnez	a2,80005aa6 <softfloat_shiftRightJamM+0xb8>
    80005a40:	fff9071b          	addiw	a4,s2,-1
    80005a44:	1702                	slli	a4,a4,0x20
    80005a46:	9301                	srli	a4,a4,0x20
    80005a48:	0705                	addi	a4,a4,1
    80005a4a:	070a                	slli	a4,a4,0x2
    80005a4c:	972e                	add	a4,a4,a1
    80005a4e:	87ce                	mv	a5,s3
    80005a50:	4194                	lw	a3,0(a1)
    80005a52:	0591                	addi	a1,a1,4
    80005a54:	0791                	addi	a5,a5,4
    80005a56:	fed7ae23          	sw	a3,-4(a5)
    80005a5a:	fee59be3          	bne	a1,a4,80005a50 <softfloat_shiftRightJamM+0x62>
    80005a5e:	02091793          	slli	a5,s2,0x20
    80005a62:	83f9                	srli	a5,a5,0x1e
    80005a64:	97ce                	add	a5,a5,s3
    80005a66:	fff4071b          	addiw	a4,s0,-1
    80005a6a:	1702                	slli	a4,a4,0x20
    80005a6c:	9301                	srli	a4,a4,0x20
    80005a6e:	0705                	addi	a4,a4,1
    80005a70:	070a                	slli	a4,a4,0x2
    80005a72:	973e                	add	a4,a4,a5
    80005a74:	0791                	addi	a5,a5,4
    80005a76:	fe07ae23          	sw	zero,-4(a5)
    80005a7a:	fef71de3          	bne	a4,a5,80005a74 <softfloat_shiftRightJamM+0x86>
    80005a7e:	c499                	beqz	s1,80005a8c <softfloat_shiftRightJamM+0x9e>
    80005a80:	0009a783          	lw	a5,0(s3)
    80005a84:	0017e793          	ori	a5,a5,1
    80005a88:	00f9a023          	sw	a5,0(s3)
    80005a8c:	70a2                	ld	ra,40(sp)
    80005a8e:	7402                	ld	s0,32(sp)
    80005a90:	64e2                	ld	s1,24(sp)
    80005a92:	6942                	ld	s2,16(sp)
    80005a94:	69a2                	ld	s3,8(sp)
    80005a96:	6145                	addi	sp,sp,48
    80005a98:	8082                	ret
    80005a9a:	4401                	li	s0,0
    80005a9c:	4781                	li	a5,0
    80005a9e:	b769                	j	80005a28 <softfloat_shiftRightJamM+0x3a>
    80005aa0:	0005041b          	sext.w	s0,a0
    80005aa4:	b79d                	j	80005a0a <softfloat_shiftRightJamM+0x1c>
    80005aa6:	86ce                	mv	a3,s3
    80005aa8:	0c8000ef          	jal	ra,80005b70 <softfloat_shortShiftRightJamM>
    80005aac:	d869                	beqz	s0,80005a7e <softfloat_shiftRightJamM+0x90>
    80005aae:	02091793          	slli	a5,s2,0x20
    80005ab2:	83f9                	srli	a5,a5,0x1e
    80005ab4:	97ce                	add	a5,a5,s3
    80005ab6:	bf45                	j	80005a66 <softfloat_shiftRightJamM+0x78>

0000000080005ab8 <softfloat_shortShiftLeftM>:
    80005ab8:	fff5079b          	addiw	a5,a0,-1
    80005abc:	02079813          	slli	a6,a5,0x20
    80005ac0:	01e85813          	srli	a6,a6,0x1e
    80005ac4:	01058733          	add	a4,a1,a6
    80005ac8:	4318                	lw	a4,0(a4)
    80005aca:	40c00e3b          	negw	t3,a2
    80005ace:	00c7173b          	sllw	a4,a4,a2
    80005ad2:	cb85                	beqz	a5,80005b02 <softfloat_shortShiftLeftM+0x4a>
    80005ad4:	ffe5079b          	addiw	a5,a0,-2
    80005ad8:	1782                	slli	a5,a5,0x20
    80005ada:	83f9                	srli	a5,a5,0x1e
    80005adc:	01fe7e13          	andi	t3,t3,31
    80005ae0:	97ae                	add	a5,a5,a1
    80005ae2:	01068533          	add	a0,a3,a6
    80005ae6:	0007a803          	lw	a6,0(a5)
    80005aea:	1571                	addi	a0,a0,-4
    80005aec:	88be                	mv	a7,a5
    80005aee:	01c8533b          	srlw	t1,a6,t3
    80005af2:	00676733          	or	a4,a4,t1
    80005af6:	c158                	sw	a4,4(a0)
    80005af8:	17f1                	addi	a5,a5,-4
    80005afa:	00c8173b          	sllw	a4,a6,a2
    80005afe:	ff1594e3          	bne	a1,a7,80005ae6 <softfloat_shortShiftLeftM+0x2e>
    80005b02:	c298                	sw	a4,0(a3)
    80005b04:	8082                	ret

0000000080005b06 <softfloat_shortShiftRightM>:
    80005b06:	419c                	lw	a5,0(a1)
    80005b08:	fff50e1b          	addiw	t3,a0,-1
    80005b0c:	000e071b          	sext.w	a4,t3
    80005b10:	40c0033b          	negw	t1,a2
    80005b14:	00c7d7bb          	srlw	a5,a5,a2
    80005b18:	cf15                	beqz	a4,80005b54 <softfloat_shortShiftRightM+0x4e>
    80005b1a:	ffe5081b          	addiw	a6,a0,-2
    80005b1e:	1802                	slli	a6,a6,0x20
    80005b20:	00858513          	addi	a0,a1,8
    80005b24:	01e85813          	srli	a6,a6,0x1e
    80005b28:	01f37313          	andi	t1,t1,31
    80005b2c:	0591                	addi	a1,a1,4
    80005b2e:	8736                	mv	a4,a3
    80005b30:	982a                	add	a6,a6,a0
    80005b32:	4188                	lw	a0,0(a1)
    80005b34:	0711                	addi	a4,a4,4
    80005b36:	0591                	addi	a1,a1,4
    80005b38:	006518bb          	sllw	a7,a0,t1
    80005b3c:	0117e7b3          	or	a5,a5,a7
    80005b40:	fef72e23          	sw	a5,-4(a4)
    80005b44:	00c557bb          	srlw	a5,a0,a2
    80005b48:	ff0595e3          	bne	a1,a6,80005b32 <softfloat_shortShiftRightM+0x2c>
    80005b4c:	1e02                	slli	t3,t3,0x20
    80005b4e:	01ee5e13          	srli	t3,t3,0x1e
    80005b52:	96f2                	add	a3,a3,t3
    80005b54:	c29c                	sw	a5,0(a3)
    80005b56:	8082                	ret

0000000080005b58 <softfloat_shortShiftRightJam64>:
    80005b58:	57fd                	li	a5,-1
    80005b5a:	00b797b3          	sll	a5,a5,a1
    80005b5e:	fff7c793          	not	a5,a5
    80005b62:	8fe9                	and	a5,a5,a0
    80005b64:	00f037b3          	snez	a5,a5
    80005b68:	00b55533          	srl	a0,a0,a1
    80005b6c:	8d5d                	or	a0,a0,a5
    80005b6e:	8082                	ret

0000000080005b70 <softfloat_shortShiftRightJamM>:
    80005b70:	0005a803          	lw	a6,0(a1)
    80005b74:	fff50e1b          	addiw	t3,a0,-1
    80005b78:	40c0033b          	negw	t1,a2
    80005b7c:	00c8573b          	srlw	a4,a6,a2
    80005b80:	00c71ebb          	sllw	t4,a4,a2
    80005b84:	000e089b          	sext.w	a7,t3
    80005b88:	0007079b          	sext.w	a5,a4
    80005b8c:	010e8563          	beq	t4,a6,80005b96 <softfloat_shortShiftRightJamM+0x26>
    80005b90:	00176793          	ori	a5,a4,1
    80005b94:	2781                	sext.w	a5,a5
    80005b96:	02088f63          	beqz	a7,80005bd4 <softfloat_shortShiftRightJamM+0x64>
    80005b9a:	ffe5081b          	addiw	a6,a0,-2
    80005b9e:	1802                	slli	a6,a6,0x20
    80005ba0:	00858513          	addi	a0,a1,8
    80005ba4:	01e85813          	srli	a6,a6,0x1e
    80005ba8:	01f37313          	andi	t1,t1,31
    80005bac:	0591                	addi	a1,a1,4
    80005bae:	8736                	mv	a4,a3
    80005bb0:	982a                	add	a6,a6,a0
    80005bb2:	4188                	lw	a0,0(a1)
    80005bb4:	0711                	addi	a4,a4,4
    80005bb6:	0591                	addi	a1,a1,4
    80005bb8:	006518bb          	sllw	a7,a0,t1
    80005bbc:	0117e7b3          	or	a5,a5,a7
    80005bc0:	fef72e23          	sw	a5,-4(a4)
    80005bc4:	00c557bb          	srlw	a5,a0,a2
    80005bc8:	ff0595e3          	bne	a1,a6,80005bb2 <softfloat_shortShiftRightJamM+0x42>
    80005bcc:	1e02                	slli	t3,t3,0x20
    80005bce:	01ee5e13          	srli	t3,t3,0x1e
    80005bd2:	96f2                	add	a3,a3,t3
    80005bd4:	c29c                	sw	a5,0(a3)
    80005bd6:	8082                	ret

0000000080005bd8 <softfloat_subM>:
    80005bd8:	4198                	lw	a4,0(a1)
    80005bda:	00062803          	lw	a6,0(a2) # 1000000 <MEM_START-0x7f000000>
    80005bde:	410707bb          	subw	a5,a4,a6
    80005be2:	c29c                	sw	a5,0(a3)
    80005be4:	4785                	li	a5,1
    80005be6:	04f50563          	beq	a0,a5,80005c30 <softfloat_subM+0x58>
    80005bea:	ffe5089b          	addiw	a7,a0,-2
    80005bee:	1882                	slli	a7,a7,0x20
    80005bf0:	00858793          	addi	a5,a1,8
    80005bf4:	01e8d893          	srli	a7,a7,0x1e
    80005bf8:	0591                	addi	a1,a1,4
    80005bfa:	0611                	addi	a2,a2,4
    80005bfc:	0691                	addi	a3,a3,4
    80005bfe:	98be                	add	a7,a7,a5
    80005c00:	4501                	li	a0,0
    80005c02:	a839                	j	80005c20 <softfloat_subM+0x48>
    80005c04:	0007851b          	sext.w	a0,a5
    80005c08:	4198                	lw	a4,0(a1)
    80005c0a:	00062803          	lw	a6,0(a2)
    80005c0e:	0591                	addi	a1,a1,4
    80005c10:	0611                	addi	a2,a2,4
    80005c12:	410707bb          	subw	a5,a4,a6
    80005c16:	9f89                	subw	a5,a5,a0
    80005c18:	c29c                	sw	a5,0(a3)
    80005c1a:	0691                	addi	a3,a3,4
    80005c1c:	01158a63          	beq	a1,a7,80005c30 <softfloat_subM+0x58>
    80005c20:	00e837b3          	sltu	a5,a6,a4
    80005c24:	0017c793          	xori	a5,a5,1
    80005c28:	fd71                	bnez	a0,80005c04 <softfloat_subM+0x2c>
    80005c2a:	01073533          	sltu	a0,a4,a6
    80005c2e:	bfe9                	j	80005c08 <softfloat_subM+0x30>
    80005c30:	8082                	ret

0000000080005c32 <softfloat_subMagsF32>:
    80005c32:	7179                	addi	sp,sp,-48
    80005c34:	0175569b          	srliw	a3,a0,0x17
    80005c38:	0175d79b          	srliw	a5,a1,0x17
    80005c3c:	00800737          	lui	a4,0x800
    80005c40:	177d                	addi	a4,a4,-1
    80005c42:	ec26                	sd	s1,24(sp)
    80005c44:	0ff7f793          	andi	a5,a5,255
    80005c48:	0ff6f493          	andi	s1,a3,255
    80005c4c:	f406                	sd	ra,40(sp)
    80005c4e:	f022                	sd	s0,32(sp)
    80005c50:	e84a                	sd	s2,16(sp)
    80005c52:	e44e                	sd	s3,8(sp)
    80005c54:	00e57633          	and	a2,a0,a4
    80005c58:	00e5f6b3          	and	a3,a1,a4
    80005c5c:	40f488bb          	subw	a7,s1,a5
    80005c60:	06f49363          	bne	s1,a5,80005cc6 <softfloat_subMagsF32+0x94>
    80005c64:	0ff00793          	li	a5,255
    80005c68:	0ef48363          	beq	s1,a5,80005d4e <softfloat_subMagsF32+0x11c>
    80005c6c:	9e15                	subw	a2,a2,a3
    80005c6e:	8932                	mv	s2,a2
    80005c70:	10060163          	beqz	a2,80005d72 <softfloat_subMagsF32+0x140>
    80005c74:	c091                	beqz	s1,80005c78 <softfloat_subMagsF32+0x46>
    80005c76:	34fd                	addiw	s1,s1,-1
    80005c78:	2501                	sext.w	a0,a0
    80005c7a:	01f5541b          	srliw	s0,a0,0x1f
    80005c7e:	00065963          	bgez	a2,80005c90 <softfloat_subMagsF32+0x5e>
    80005c82:	fff54513          	not	a0,a0
    80005c86:	40c0093b          	negw	s2,a2
    80005c8a:	01f5541b          	srliw	s0,a0,0x1f
    80005c8e:	864a                	mv	a2,s2
    80005c90:	8532                	mv	a0,a2
    80005c92:	37c000ef          	jal	ra,8000600e <softfloat_countLeadingZeros32>
    80005c96:	3561                	addiw	a0,a0,-8
    80005c98:	40a4873b          	subw	a4,s1,a0
    80005c9c:	02071693          	slli	a3,a4,0x20
    80005ca0:	4781                	li	a5,0
    80005ca2:	0006c563          	bltz	a3,80005cac <softfloat_subMagsF32+0x7a>
    80005ca6:	0177179b          	slliw	a5,a4,0x17
    80005caa:	84aa                	mv	s1,a0
    80005cac:	70a2                	ld	ra,40(sp)
    80005cae:	01f4151b          	slliw	a0,s0,0x1f
    80005cb2:	7402                	ld	s0,32(sp)
    80005cb4:	009916bb          	sllw	a3,s2,s1
    80005cb8:	9d3d                	addw	a0,a0,a5
    80005cba:	64e2                	ld	s1,24(sp)
    80005cbc:	6942                	ld	s2,16(sp)
    80005cbe:	69a2                	ld	s3,8(sp)
    80005cc0:	9d35                	addw	a0,a0,a3
    80005cc2:	6145                	addi	sp,sp,48
    80005cc4:	8082                	ret
    80005cc6:	0076171b          	slliw	a4,a2,0x7
    80005cca:	0076961b          	slliw	a2,a3,0x7
    80005cce:	0005081b          	sext.w	a6,a0
    80005cd2:	0007031b          	sext.w	t1,a4
    80005cd6:	00060e1b          	sext.w	t3,a2
    80005cda:	0408c363          	bltz	a7,80005d20 <softfloat_subMagsF32+0xee>
    80005cde:	0ff00693          	li	a3,255
    80005ce2:	0ad48763          	beq	s1,a3,80005d90 <softfloat_subMagsF32+0x15e>
    80005ce6:	40000537          	lui	a0,0x40000
    80005cea:	8f49                	or	a4,a4,a0
    80005cec:	0007091b          	sext.w	s2,a4
    80005cf0:	fff4899b          	addiw	s3,s1,-1
    80005cf4:	40000737          	lui	a4,0x40000
    80005cf8:	e391                	bnez	a5,80005cfc <softfloat_subMagsF32+0xca>
    80005cfa:	8772                	mv	a4,t3
    80005cfc:	01f8541b          	srliw	s0,a6,0x1f
    80005d00:	00e6053b          	addw	a0,a2,a4
    80005d04:	85c6                	mv	a1,a7
    80005d06:	ca5ff0ef          	jal	ra,800059aa <softfloat_shiftRightJam32>
    80005d0a:	40a9063b          	subw	a2,s2,a0
    80005d0e:	8522                	mv	a0,s0
    80005d10:	7402                	ld	s0,32(sp)
    80005d12:	70a2                	ld	ra,40(sp)
    80005d14:	64e2                	ld	s1,24(sp)
    80005d16:	6942                	ld	s2,16(sp)
    80005d18:	85ce                	mv	a1,s3
    80005d1a:	69a2                	ld	s3,8(sp)
    80005d1c:	6145                	addi	sp,sp,48
    80005d1e:	a69d                	j	80006084 <softfloat_normRoundPackToF32>
    80005d20:	fff84813          	not	a6,a6
    80005d24:	0ff00693          	li	a3,255
    80005d28:	01f8541b          	srliw	s0,a6,0x1f
    80005d2c:	06d78e63          	beq	a5,a3,80005da8 <softfloat_subMagsF32+0x176>
    80005d30:	400006b7          	lui	a3,0x40000
    80005d34:	8e55                	or	a2,a2,a3
    80005d36:	fff7899b          	addiw	s3,a5,-1
    80005d3a:	0006091b          	sext.w	s2,a2
    80005d3e:	40000537          	lui	a0,0x40000
    80005d42:	e091                	bnez	s1,80005d46 <softfloat_subMagsF32+0x114>
    80005d44:	851a                	mv	a0,t1
    80005d46:	9d39                	addw	a0,a0,a4
    80005d48:	409788bb          	subw	a7,a5,s1
    80005d4c:	bf65                	j	80005d04 <softfloat_subMagsF32+0xd2>
    80005d4e:	882a                	mv	a6,a0
    80005d50:	0105e833          	or	a6,a1,a6
    80005d54:	00e87733          	and	a4,a6,a4
    80005d58:	2701                	sext.w	a4,a4
    80005d5a:	ef0d                	bnez	a4,80005d94 <softfloat_subMagsF32+0x162>
    80005d5c:	01026213          	ori	tp,tp,16
    80005d60:	7fc00537          	lui	a0,0x7fc00
    80005d64:	70a2                	ld	ra,40(sp)
    80005d66:	7402                	ld	s0,32(sp)
    80005d68:	64e2                	ld	s1,24(sp)
    80005d6a:	6942                	ld	s2,16(sp)
    80005d6c:	69a2                	ld	s3,8(sp)
    80005d6e:	6145                	addi	sp,sp,48
    80005d70:	8082                	ret
    80005d72:	40d2571b          	sraiw	a4,tp,0xd
    80005d76:	4789                	li	a5,2
    80005d78:	80000537          	lui	a0,0x80000
    80005d7c:	fef704e3          	beq	a4,a5,80005d64 <softfloat_subMagsF32+0x132>
    80005d80:	70a2                	ld	ra,40(sp)
    80005d82:	7402                	ld	s0,32(sp)
    80005d84:	64e2                	ld	s1,24(sp)
    80005d86:	6942                	ld	s2,16(sp)
    80005d88:	69a2                	ld	s3,8(sp)
    80005d8a:	4501                	li	a0,0
    80005d8c:	6145                	addi	sp,sp,48
    80005d8e:	8082                	ret
    80005d90:	fc030ae3          	beqz	t1,80005d64 <softfloat_subMagsF32+0x132>
    80005d94:	1b4000ef          	jal	ra,80005f48 <softfloat_propagateNaNF32UI>
    80005d98:	70a2                	ld	ra,40(sp)
    80005d9a:	7402                	ld	s0,32(sp)
    80005d9c:	64e2                	ld	s1,24(sp)
    80005d9e:	6942                	ld	s2,16(sp)
    80005da0:	69a2                	ld	s3,8(sp)
    80005da2:	2501                	sext.w	a0,a0
    80005da4:	6145                	addi	sp,sp,48
    80005da6:	8082                	ret
    80005da8:	fe0e16e3          	bnez	t3,80005d94 <softfloat_subMagsF32+0x162>
    80005dac:	01f4181b          	slliw	a6,s0,0x1f
    80005db0:	7f800537          	lui	a0,0x7f800
    80005db4:	00a8053b          	addw	a0,a6,a0
    80005db8:	b775                	j	80005d64 <softfloat_subMagsF32+0x132>

0000000080005dba <softfloat_subMagsF64>:
    80005dba:	7179                	addi	sp,sp,-48
    80005dbc:	f022                	sd	s0,32(sp)
    80005dbe:	ec26                	sd	s1,24(sp)
    80005dc0:	03455413          	srli	s0,a0,0x34
    80005dc4:	56fd                	li	a3,-1
    80005dc6:	0345d493          	srli	s1,a1,0x34
    80005dca:	00c6d713          	srli	a4,a3,0xc
    80005dce:	e44e                	sd	s3,8(sp)
    80005dd0:	7ff47413          	andi	s0,s0,2047
    80005dd4:	7ff4f493          	andi	s1,s1,2047
    80005dd8:	f406                	sd	ra,40(sp)
    80005dda:	e84a                	sd	s2,16(sp)
    80005ddc:	e052                	sd	s4,0(sp)
    80005dde:	89b2                	mv	s3,a2
    80005de0:	00e577b3          	and	a5,a0,a4
    80005de4:	00e5f633          	and	a2,a1,a4
    80005de8:	4094083b          	subw	a6,s0,s1
    80005dec:	02941a63          	bne	s0,s1,80005e20 <softfloat_subMagsF64+0x66>
    80005df0:	7ff00813          	li	a6,2047
    80005df4:	09040d63          	beq	s0,a6,80005e8e <softfloat_subMagsF64+0xd4>
    80005df8:	40c784b3          	sub	s1,a5,a2
    80005dfc:	0ac79a63          	bne	a5,a2,80005eb0 <softfloat_subMagsF64+0xf6>
    80005e00:	40d2571b          	sraiw	a4,tp,0xd
    80005e04:	4789                	li	a5,2
    80005e06:	03f69513          	slli	a0,a3,0x3f
    80005e0a:	08f70b63          	beq	a4,a5,80005ea0 <softfloat_subMagsF64+0xe6>
    80005e0e:	70a2                	ld	ra,40(sp)
    80005e10:	7402                	ld	s0,32(sp)
    80005e12:	64e2                	ld	s1,24(sp)
    80005e14:	6942                	ld	s2,16(sp)
    80005e16:	69a2                	ld	s3,8(sp)
    80005e18:	6a02                	ld	s4,0(sp)
    80005e1a:	4501                	li	a0,0
    80005e1c:	6145                	addi	sp,sp,48
    80005e1e:	8082                	ret
    80005e20:	00a79913          	slli	s2,a5,0xa
    80005e24:	00a61a13          	slli	s4,a2,0xa
    80005e28:	7ff00793          	li	a5,2047
    80005e2c:	02084d63          	bltz	a6,80005e66 <softfloat_subMagsF64+0xac>
    80005e30:	0cf40363          	beq	s0,a5,80005ef6 <softfloat_subMagsF64+0x13c>
    80005e34:	8552                	mv	a0,s4
    80005e36:	c099                	beqz	s1,80005e3c <softfloat_subMagsF64+0x82>
    80005e38:	4505                	li	a0,1
    80005e3a:	157a                	slli	a0,a0,0x3e
    80005e3c:	85c2                	mv	a1,a6
    80005e3e:	9552                	add	a0,a0,s4
    80005e40:	b8dff0ef          	jal	ra,800059cc <softfloat_shiftRightJam64>
    80005e44:	4785                	li	a5,1
    80005e46:	17fa                	slli	a5,a5,0x3e
    80005e48:	00f967b3          	or	a5,s2,a5
    80005e4c:	40a78633          	sub	a2,a5,a0
    80005e50:	fff4059b          	addiw	a1,s0,-1
    80005e54:	7402                	ld	s0,32(sp)
    80005e56:	70a2                	ld	ra,40(sp)
    80005e58:	64e2                	ld	s1,24(sp)
    80005e5a:	6942                	ld	s2,16(sp)
    80005e5c:	6a02                	ld	s4,0(sp)
    80005e5e:	854e                	mv	a0,s3
    80005e60:	69a2                	ld	s3,8(sp)
    80005e62:	6145                	addi	sp,sp,48
    80005e64:	a469                	j	800060ee <softfloat_normRoundPackToF64>
    80005e66:	0019c993          	xori	s3,s3,1
    80005e6a:	0af48263          	beq	s1,a5,80005f0e <softfloat_subMagsF64+0x154>
    80005e6e:	854a                	mv	a0,s2
    80005e70:	c019                	beqz	s0,80005e76 <softfloat_subMagsF64+0xbc>
    80005e72:	4505                	li	a0,1
    80005e74:	157a                	slli	a0,a0,0x3e
    80005e76:	408485bb          	subw	a1,s1,s0
    80005e7a:	954a                	add	a0,a0,s2
    80005e7c:	b51ff0ef          	jal	ra,800059cc <softfloat_shiftRightJam64>
    80005e80:	4605                	li	a2,1
    80005e82:	167a                	slli	a2,a2,0x3e
    80005e84:	00ca6633          	or	a2,s4,a2
    80005e88:	8e09                	sub	a2,a2,a0
    80005e8a:	8426                	mv	s0,s1
    80005e8c:	b7d1                	j	80005e50 <softfloat_subMagsF64+0x96>
    80005e8e:	00b567b3          	or	a5,a0,a1
    80005e92:	8f7d                	and	a4,a4,a5
    80005e94:	e33d                	bnez	a4,80005efa <softfloat_subMagsF64+0x140>
    80005e96:	01026213          	ori	tp,tp,16
    80005e9a:	00fff537          	lui	a0,0xfff
    80005e9e:	151e                	slli	a0,a0,0x27
    80005ea0:	70a2                	ld	ra,40(sp)
    80005ea2:	7402                	ld	s0,32(sp)
    80005ea4:	64e2                	ld	s1,24(sp)
    80005ea6:	6942                	ld	s2,16(sp)
    80005ea8:	69a2                	ld	s3,8(sp)
    80005eaa:	6a02                	ld	s4,0(sp)
    80005eac:	6145                	addi	sp,sp,48
    80005eae:	8082                	ret
    80005eb0:	c011                	beqz	s0,80005eb4 <softfloat_subMagsF64+0xfa>
    80005eb2:	347d                	addiw	s0,s0,-1
    80005eb4:	0004d663          	bgez	s1,80005ec0 <softfloat_subMagsF64+0x106>
    80005eb8:	0019c993          	xori	s3,s3,1
    80005ebc:	409004b3          	neg	s1,s1
    80005ec0:	8526                	mv	a0,s1
    80005ec2:	17e000ef          	jal	ra,80006040 <softfloat_countLeadingZeros64>
    80005ec6:	3555                	addiw	a0,a0,-11
    80005ec8:	40a4073b          	subw	a4,s0,a0
    80005ecc:	4781                	li	a5,0
    80005ece:	00074563          	bltz	a4,80005ed8 <softfloat_subMagsF64+0x11e>
    80005ed2:	03471793          	slli	a5,a4,0x34
    80005ed6:	842a                	mv	s0,a0
    80005ed8:	03f99613          	slli	a2,s3,0x3f
    80005edc:	00849433          	sll	s0,s1,s0
    80005ee0:	00f60533          	add	a0,a2,a5
    80005ee4:	70a2                	ld	ra,40(sp)
    80005ee6:	9522                	add	a0,a0,s0
    80005ee8:	7402                	ld	s0,32(sp)
    80005eea:	64e2                	ld	s1,24(sp)
    80005eec:	6942                	ld	s2,16(sp)
    80005eee:	69a2                	ld	s3,8(sp)
    80005ef0:	6a02                	ld	s4,0(sp)
    80005ef2:	6145                	addi	sp,sp,48
    80005ef4:	8082                	ret
    80005ef6:	fa0905e3          	beqz	s2,80005ea0 <softfloat_subMagsF64+0xe6>
    80005efa:	088000ef          	jal	ra,80005f82 <softfloat_propagateNaNF64UI>
    80005efe:	70a2                	ld	ra,40(sp)
    80005f00:	7402                	ld	s0,32(sp)
    80005f02:	64e2                	ld	s1,24(sp)
    80005f04:	6942                	ld	s2,16(sp)
    80005f06:	69a2                	ld	s3,8(sp)
    80005f08:	6a02                	ld	s4,0(sp)
    80005f0a:	6145                	addi	sp,sp,48
    80005f0c:	8082                	ret
    80005f0e:	fe0a16e3          	bnez	s4,80005efa <softfloat_subMagsF64+0x140>
    80005f12:	03f99513          	slli	a0,s3,0x3f
    80005f16:	14d2                	slli	s1,s1,0x34
    80005f18:	9526                	add	a0,a0,s1
    80005f1a:	b759                	j	80005ea0 <softfloat_subMagsF64+0xe6>

0000000080005f1c <ui64_to_f64>:
    80005f1c:	c50d                	beqz	a0,80005f46 <ui64_to_f64+0x2a>
    80005f1e:	862a                	mv	a2,a0
    80005f20:	00054663          	bltz	a0,80005f2c <ui64_to_f64+0x10>
    80005f24:	43c00593          	li	a1,1084
    80005f28:	4501                	li	a0,0
    80005f2a:	a2d1                	j	800060ee <softfloat_normRoundPackToF64>
    80005f2c:	1141                	addi	sp,sp,-16
    80005f2e:	4585                	li	a1,1
    80005f30:	e406                	sd	ra,8(sp)
    80005f32:	c27ff0ef          	jal	ra,80005b58 <softfloat_shortShiftRightJam64>
    80005f36:	60a2                	ld	ra,8(sp)
    80005f38:	862a                	mv	a2,a0
    80005f3a:	43d00593          	li	a1,1085
    80005f3e:	4501                	li	a0,0
    80005f40:	0141                	addi	sp,sp,16
    80005f42:	8dfff06f          	j	80005820 <softfloat_roundPackToF64>
    80005f46:	8082                	ret

0000000080005f48 <softfloat_propagateNaNF32UI>:
    80005f48:	7fc007b7          	lui	a5,0x7fc00
    80005f4c:	8fe9                	and	a5,a5,a0
    80005f4e:	7f800737          	lui	a4,0x7f800
    80005f52:	00e78c63          	beq	a5,a4,80005f6a <softfloat_propagateNaNF32UI+0x22>
    80005f56:	7fc007b7          	lui	a5,0x7fc00
    80005f5a:	8fed                	and	a5,a5,a1
    80005f5c:	7f800737          	lui	a4,0x7f800
    80005f60:	00e78c63          	beq	a5,a4,80005f78 <softfloat_propagateNaNF32UI+0x30>
    80005f64:	7fc00537          	lui	a0,0x7fc00
    80005f68:	8082                	ret
    80005f6a:	152a                	slli	a0,a0,0x2a
    80005f6c:	d56d                	beqz	a0,80005f56 <softfloat_propagateNaNF32UI+0xe>
    80005f6e:	01026213          	ori	tp,tp,16
    80005f72:	7fc00537          	lui	a0,0x7fc00
    80005f76:	8082                	ret
    80005f78:	15aa                	slli	a1,a1,0x2a
    80005f7a:	d5ed                	beqz	a1,80005f64 <softfloat_propagateNaNF32UI+0x1c>
    80005f7c:	01026213          	ori	tp,tp,16
    80005f80:	bfcd                	j	80005f72 <softfloat_propagateNaNF32UI+0x2a>

0000000080005f82 <softfloat_propagateNaNF64UI>:
    80005f82:	00fff7b7          	lui	a5,0xfff
    80005f86:	179e                	slli	a5,a5,0x27
    80005f88:	7ff00713          	li	a4,2047
    80005f8c:	8fe9                	and	a5,a5,a0
    80005f8e:	1752                	slli	a4,a4,0x34
    80005f90:	00e78f63          	beq	a5,a4,80005fae <softfloat_propagateNaNF64UI+0x2c>
    80005f94:	00fff7b7          	lui	a5,0xfff
    80005f98:	179e                	slli	a5,a5,0x27
    80005f9a:	7ff00713          	li	a4,2047
    80005f9e:	8fed                	and	a5,a5,a1
    80005fa0:	1752                	slli	a4,a4,0x34
    80005fa2:	00e78f63          	beq	a5,a4,80005fc0 <softfloat_propagateNaNF64UI+0x3e>
    80005fa6:	00fff537          	lui	a0,0xfff
    80005faa:	151e                	slli	a0,a0,0x27
    80005fac:	8082                	ret
    80005fae:	00d51793          	slli	a5,a0,0xd
    80005fb2:	d3ed                	beqz	a5,80005f94 <softfloat_propagateNaNF64UI+0x12>
    80005fb4:	01026213          	ori	tp,tp,16
    80005fb8:	00fff537          	lui	a0,0xfff
    80005fbc:	151e                	slli	a0,a0,0x27
    80005fbe:	8082                	ret
    80005fc0:	00d59793          	slli	a5,a1,0xd
    80005fc4:	d3ed                	beqz	a5,80005fa6 <softfloat_propagateNaNF64UI+0x24>
    80005fc6:	01026213          	ori	tp,tp,16
    80005fca:	b7fd                	j	80005fb8 <softfloat_propagateNaNF64UI+0x36>

0000000080005fcc <softfloat_addM>:
    80005fcc:	4198                	lw	a4,0(a1)
    80005fce:	421c                	lw	a5,0(a2)
    80005fd0:	4805                	li	a6,1
    80005fd2:	9fb9                	addw	a5,a5,a4
    80005fd4:	c29c                	sw	a5,0(a3)
    80005fd6:	03050b63          	beq	a0,a6,8000600c <softfloat_addM+0x40>
    80005fda:	3579                	addiw	a0,a0,-2
    80005fdc:	1502                	slli	a0,a0,0x20
    80005fde:	00858813          	addi	a6,a1,8
    80005fe2:	8179                	srli	a0,a0,0x1e
    80005fe4:	9542                	add	a0,a0,a6
    80005fe6:	0591                	addi	a1,a1,4
    80005fe8:	0611                	addi	a2,a2,4
    80005fea:	0691                	addi	a3,a3,4
    80005fec:	4801                	li	a6,0
    80005fee:	00f70463          	beq	a4,a5,80005ff6 <softfloat_addM+0x2a>
    80005ff2:	00e7b833          	sltu	a6,a5,a4
    80005ff6:	4198                	lw	a4,0(a1)
    80005ff8:	421c                	lw	a5,0(a2)
    80005ffa:	0591                	addi	a1,a1,4
    80005ffc:	0611                	addi	a2,a2,4
    80005ffe:	9fb9                	addw	a5,a5,a4
    80006000:	010787bb          	addw	a5,a5,a6
    80006004:	c29c                	sw	a5,0(a3)
    80006006:	0691                	addi	a3,a3,4
    80006008:	fea593e3          	bne	a1,a0,80005fee <softfloat_addM+0x22>
    8000600c:	8082                	ret

000000008000600e <softfloat_countLeadingZeros32>:
    8000600e:	67c1                	lui	a5,0x10
    80006010:	4701                	li	a4,0
    80006012:	00f57563          	bgeu	a0,a5,8000601c <softfloat_countLeadingZeros32+0xe>
    80006016:	0105151b          	slliw	a0,a0,0x10
    8000601a:	4741                	li	a4,16
    8000601c:	010007b7          	lui	a5,0x1000
    80006020:	00f57563          	bgeu	a0,a5,8000602a <softfloat_countLeadingZeros32+0x1c>
    80006024:	0085151b          	slliw	a0,a0,0x8
    80006028:	2721                	addiw	a4,a4,8
    8000602a:	00001797          	auipc	a5,0x1
    8000602e:	b4e78793          	addi	a5,a5,-1202 # 80006b78 <softfloat_countLeadingZeros8>
    80006032:	0185551b          	srliw	a0,a0,0x18
    80006036:	953e                	add	a0,a0,a5
    80006038:	00054503          	lbu	a0,0(a0) # fff000 <MEM_START-0x7f001000>
    8000603c:	9d39                	addw	a0,a0,a4
    8000603e:	8082                	ret

0000000080006040 <softfloat_countLeadingZeros64>:
    80006040:	02055793          	srli	a5,a0,0x20
    80006044:	cb9d                	beqz	a5,8000607a <softfloat_countLeadingZeros64+0x3a>
    80006046:	2781                	sext.w	a5,a5
    80006048:	4701                	li	a4,0
    8000604a:	66c1                	lui	a3,0x10
    8000604c:	00d7f563          	bgeu	a5,a3,80006056 <softfloat_countLeadingZeros64+0x16>
    80006050:	0107979b          	slliw	a5,a5,0x10
    80006054:	2741                	addiw	a4,a4,16
    80006056:	010006b7          	lui	a3,0x1000
    8000605a:	00d7f563          	bgeu	a5,a3,80006064 <softfloat_countLeadingZeros64+0x24>
    8000605e:	0087979b          	slliw	a5,a5,0x8
    80006062:	2721                	addiw	a4,a4,8
    80006064:	00001697          	auipc	a3,0x1
    80006068:	b1468693          	addi	a3,a3,-1260 # 80006b78 <softfloat_countLeadingZeros8>
    8000606c:	0187d79b          	srliw	a5,a5,0x18
    80006070:	97b6                	add	a5,a5,a3
    80006072:	0007c503          	lbu	a0,0(a5)
    80006076:	9d39                	addw	a0,a0,a4
    80006078:	8082                	ret
    8000607a:	0005079b          	sext.w	a5,a0
    8000607e:	02000713          	li	a4,32
    80006082:	b7e1                	j	8000604a <softfloat_countLeadingZeros64+0xa>

0000000080006084 <softfloat_normRoundPackToF32>:
    80006084:	1101                	addi	sp,sp,-32
    80006086:	e04a                	sd	s2,0(sp)
    80006088:	892a                	mv	s2,a0
    8000608a:	8532                	mv	a0,a2
    8000608c:	e822                	sd	s0,16(sp)
    8000608e:	e426                	sd	s1,8(sp)
    80006090:	8432                	mv	s0,a2
    80006092:	84ae                	mv	s1,a1
    80006094:	ec06                	sd	ra,24(sp)
    80006096:	f79ff0ef          	jal	ra,8000600e <softfloat_countLeadingZeros32>
    8000609a:	fff5061b          	addiw	a2,a0,-1
    8000609e:	4699                	li	a3,6
    800060a0:	40c485bb          	subw	a1,s1,a2
    800060a4:	02c6db63          	bge	a3,a2,800060da <softfloat_normRoundPackToF32+0x56>
    800060a8:	0fc00693          	li	a3,252
    800060ac:	02b6e763          	bltu	a3,a1,800060da <softfloat_normRoundPackToF32+0x56>
    800060b0:	0005071b          	sext.w	a4,a0
    800060b4:	01f9191b          	slliw	s2,s2,0x1f
    800060b8:	4601                	li	a2,0
    800060ba:	c019                	beqz	s0,800060c0 <softfloat_normRoundPackToF32+0x3c>
    800060bc:	0175961b          	slliw	a2,a1,0x17
    800060c0:	ff87051b          	addiw	a0,a4,-8
    800060c4:	00a4143b          	sllw	s0,s0,a0
    800060c8:	0124053b          	addw	a0,s0,s2
    800060cc:	60e2                	ld	ra,24(sp)
    800060ce:	6442                	ld	s0,16(sp)
    800060d0:	64a2                	ld	s1,8(sp)
    800060d2:	6902                	ld	s2,0(sp)
    800060d4:	9d31                	addw	a0,a0,a2
    800060d6:	6105                	addi	sp,sp,32
    800060d8:	8082                	ret
    800060da:	00c4163b          	sllw	a2,s0,a2
    800060de:	6442                	ld	s0,16(sp)
    800060e0:	60e2                	ld	ra,24(sp)
    800060e2:	64a2                	ld	s1,8(sp)
    800060e4:	854a                	mv	a0,s2
    800060e6:	6902                	ld	s2,0(sp)
    800060e8:	6105                	addi	sp,sp,32
    800060ea:	e34ff06f          	j	8000571e <softfloat_roundPackToF32>

00000000800060ee <softfloat_normRoundPackToF64>:
    800060ee:	1101                	addi	sp,sp,-32
    800060f0:	e04a                	sd	s2,0(sp)
    800060f2:	892a                	mv	s2,a0
    800060f4:	8532                	mv	a0,a2
    800060f6:	e822                	sd	s0,16(sp)
    800060f8:	e426                	sd	s1,8(sp)
    800060fa:	8432                	mv	s0,a2
    800060fc:	84ae                	mv	s1,a1
    800060fe:	ec06                	sd	ra,24(sp)
    80006100:	f41ff0ef          	jal	ra,80006040 <softfloat_countLeadingZeros64>
    80006104:	fff5061b          	addiw	a2,a0,-1
    80006108:	4725                	li	a4,9
    8000610a:	40c485bb          	subw	a1,s1,a2
    8000610e:	02c75a63          	bge	a4,a2,80006142 <softfloat_normRoundPackToF64+0x54>
    80006112:	7fc00713          	li	a4,2044
    80006116:	02b76663          	bltu	a4,a1,80006142 <softfloat_normRoundPackToF64+0x54>
    8000611a:	0005079b          	sext.w	a5,a0
    8000611e:	197e                	slli	s2,s2,0x3f
    80006120:	4601                	li	a2,0
    80006122:	c019                	beqz	s0,80006128 <softfloat_normRoundPackToF64+0x3a>
    80006124:	03459613          	slli	a2,a1,0x34
    80006128:	ff57851b          	addiw	a0,a5,-11
    8000612c:	00a41433          	sll	s0,s0,a0
    80006130:	01240533          	add	a0,s0,s2
    80006134:	60e2                	ld	ra,24(sp)
    80006136:	6442                	ld	s0,16(sp)
    80006138:	64a2                	ld	s1,8(sp)
    8000613a:	6902                	ld	s2,0(sp)
    8000613c:	9532                	add	a0,a0,a2
    8000613e:	6105                	addi	sp,sp,32
    80006140:	8082                	ret
    80006142:	00c41633          	sll	a2,s0,a2
    80006146:	6442                	ld	s0,16(sp)
    80006148:	60e2                	ld	ra,24(sp)
    8000614a:	64a2                	ld	s1,8(sp)
    8000614c:	854a                	mv	a0,s2
    8000614e:	6902                	ld	s2,0(sp)
    80006150:	6105                	addi	sp,sp,32
    80006152:	eceff06f          	j	80005820 <softfloat_roundPackToF64>

0000000080006156 <vsnprintf>:
    80006156:	00064783          	lbu	a5,0(a2)
    8000615a:	8eaa                	mv	t4,a0
    8000615c:	24078d63          	beqz	a5,800063b6 <vsnprintf+0x260>
    80006160:	715d                	addi	sp,sp,-80
    80006162:	e4a2                	sd	s0,72(sp)
    80006164:	e0a6                	sd	s1,64(sp)
    80006166:	fc4a                	sd	s2,56(sp)
    80006168:	f84e                	sd	s3,48(sp)
    8000616a:	f452                	sd	s4,40(sp)
    8000616c:	f056                	sd	s5,32(sp)
    8000616e:	ec5a                	sd	s6,24(sp)
    80006170:	e85e                	sd	s7,16(sp)
    80006172:	e462                	sd	s8,8(sp)
    80006174:	4701                	li	a4,0
    80006176:	4401                	li	s0,0
    80006178:	4a81                	li	s5,0
    8000617a:	4801                	li	a6,0
    8000617c:	02500393          	li	t2,37
    80006180:	4f55                	li	t5,21
    80006182:	00001317          	auipc	t1,0x1
    80006186:	af630313          	addi	t1,t1,-1290 # 80006c78 <softfloat_countLeadingZeros8+0x100>
    8000618a:	4529                	li	a0,10
    8000618c:	02d00a13          	li	s4,45
    80006190:	42a5                	li	t0,9
    80006192:	5ffd                	li	t6,-1
    80006194:	07800993          	li	s3,120
    80006198:	03000913          	li	s2,48
    8000619c:	06c00493          	li	s1,108
    800061a0:	00160e13          	addi	t3,a2,1
    800061a4:	04081363          	bnez	a6,800061ea <vsnprintf+0x94>
    800061a8:	1a778e63          	beq	a5,t2,80006364 <vsnprintf+0x20e>
    800061ac:	00170893          	addi	a7,a4,1 # 7f800001 <MEM_START-0x7fffff>
    800061b0:	00b8f563          	bgeu	a7,a1,800061ba <vsnprintf+0x64>
    800061b4:	9776                	add	a4,a4,t4
    800061b6:	00f70023          	sb	a5,0(a4)
    800061ba:	00164783          	lbu	a5,1(a2)
    800061be:	8746                	mv	a4,a7
    800061c0:	8672                	mv	a2,t3
    800061c2:	fff9                	bnez	a5,800061a0 <vsnprintf+0x4a>
    800061c4:	0007051b          	sext.w	a0,a4
    800061c8:	1ab76563          	bltu	a4,a1,80006372 <vsnprintf+0x21c>
    800061cc:	c581                	beqz	a1,800061d4 <vsnprintf+0x7e>
    800061ce:	95f6                	add	a1,a1,t4
    800061d0:	fe058fa3          	sb	zero,-1(a1)
    800061d4:	6426                	ld	s0,72(sp)
    800061d6:	6486                	ld	s1,64(sp)
    800061d8:	7962                	ld	s2,56(sp)
    800061da:	79c2                	ld	s3,48(sp)
    800061dc:	7a22                	ld	s4,40(sp)
    800061de:	7a82                	ld	s5,32(sp)
    800061e0:	6b62                	ld	s6,24(sp)
    800061e2:	6bc2                	ld	s7,16(sp)
    800061e4:	6c22                	ld	s8,8(sp)
    800061e6:	6161                	addi	sp,sp,80
    800061e8:	8082                	ret
    800061ea:	f9d7879b          	addiw	a5,a5,-99
    800061ee:	0ff7f793          	andi	a5,a5,255
    800061f2:	16ff6363          	bltu	t5,a5,80006358 <vsnprintf+0x202>
    800061f6:	078a                	slli	a5,a5,0x2
    800061f8:	979a                	add	a5,a5,t1
    800061fa:	439c                	lw	a5,0(a5)
    800061fc:	979a                	add	a5,a5,t1
    800061fe:	8782                	jr	a5
    80006200:	00868793          	addi	a5,a3,8
    80006204:	180a9b63          	bnez	s5,8000639a <vsnprintf+0x244>
    80006208:	0006ac03          	lw	s8,0(a3)
    8000620c:	4b9d                	li	s7,7
    8000620e:	86be                	mv	a3,a5
    80006210:	885e                	mv	a6,s7
    80006212:	87ba                	mv	a5,a4
    80006214:	0785                	addi	a5,a5,1
    80006216:	02b7f263          	bgeu	a5,a1,8000623a <vsnprintf+0xe4>
    8000621a:	0028189b          	slliw	a7,a6,0x2
    8000621e:	411c58b3          	sra	a7,s8,a7
    80006222:	00f8fb13          	andi	s6,a7,15
    80006226:	057b0a93          	addi	s5,s6,87
    8000622a:	0162c463          	blt	t0,s6,80006232 <vsnprintf+0xdc>
    8000622e:	030b0a93          	addi	s5,s6,48
    80006232:	00fe88b3          	add	a7,t4,a5
    80006236:	ff588fa3          	sb	s5,-1(a7)
    8000623a:	387d                	addiw	a6,a6,-1
    8000623c:	fdf81ce3          	bne	a6,t6,80006214 <vsnprintf+0xbe>
    80006240:	00164783          	lbu	a5,1(a2)
    80006244:	0705                	addi	a4,a4,1
    80006246:	975e                	add	a4,a4,s7
    80006248:	8672                	mv	a2,t3
    8000624a:	4a81                	li	s5,0
    8000624c:	4801                	li	a6,0
    8000624e:	fba9                	bnez	a5,800061a0 <vsnprintf+0x4a>
    80006250:	bf95                	j	800061c4 <vsnprintf+0x6e>
    80006252:	0006b883          	ld	a7,0(a3)
    80006256:	883a                	mv	a6,a4
    80006258:	06a1                	addi	a3,a3,8
    8000625a:	0008c783          	lbu	a5,0(a7)
    8000625e:	16078763          	beqz	a5,800063cc <vsnprintf+0x276>
    80006262:	0805                	addi	a6,a6,1
    80006264:	00b87663          	bgeu	a6,a1,80006270 <vsnprintf+0x11a>
    80006268:	010e8ab3          	add	s5,t4,a6
    8000626c:	fefa8fa3          	sb	a5,-1(s5)
    80006270:	40e807b3          	sub	a5,a6,a4
    80006274:	97c6                	add	a5,a5,a7
    80006276:	0007c783          	lbu	a5,0(a5)
    8000627a:	f7e5                	bnez	a5,80006262 <vsnprintf+0x10c>
    8000627c:	00164783          	lbu	a5,1(a2)
    80006280:	8742                	mv	a4,a6
    80006282:	8672                	mv	a2,t3
    80006284:	4a81                	li	s5,0
    80006286:	4801                	li	a6,0
    80006288:	ff81                	bnez	a5,800061a0 <vsnprintf+0x4a>
    8000628a:	bf2d                	j	800061c4 <vsnprintf+0x6e>
    8000628c:	00170793          	addi	a5,a4,1
    80006290:	00b7f663          	bgeu	a5,a1,8000629c <vsnprintf+0x146>
    80006294:	00ee8833          	add	a6,t4,a4
    80006298:	01280023          	sb	s2,0(a6)
    8000629c:	0709                	addi	a4,a4,2
    8000629e:	00868813          	addi	a6,a3,8
    800062a2:	00b77563          	bgeu	a4,a1,800062ac <vsnprintf+0x156>
    800062a6:	97f6                	add	a5,a5,t4
    800062a8:	01378023          	sb	s3,0(a5)
    800062ac:	0006bc03          	ld	s8,0(a3)
    800062b0:	4bbd                	li	s7,15
    800062b2:	86c2                	mv	a3,a6
    800062b4:	bfb1                	j	80006210 <vsnprintf+0xba>
    800062b6:	00164783          	lbu	a5,1(a2)
    800062ba:	0e978563          	beq	a5,s1,800063a4 <vsnprintf+0x24e>
    800062be:	8672                	mv	a2,t3
    800062c0:	8ac2                	mv	s5,a6
    800062c2:	ec079fe3          	bnez	a5,800061a0 <vsnprintf+0x4a>
    800062c6:	bdfd                	j	800061c4 <vsnprintf+0x6e>
    800062c8:	00868893          	addi	a7,a3,8
    800062cc:	0a0a8763          	beqz	s5,8000637a <vsnprintf+0x224>
    800062d0:	0006b803          	ld	a6,0(a3)
    800062d4:	0a084863          	bltz	a6,80006384 <vsnprintf+0x22e>
    800062d8:	02a847b3          	div	a5,a6,a0
    800062dc:	c7ed                	beqz	a5,800063c6 <vsnprintf+0x270>
    800062de:	4685                	li	a3,1
    800062e0:	02a7c7b3          	div	a5,a5,a0
    800062e4:	0685                	addi	a3,a3,1
    800062e6:	ffed                	bnez	a5,800062e0 <vsnprintf+0x18a>
    800062e8:	fff6879b          	addiw	a5,a3,-1
    800062ec:	8436                	mv	s0,a3
    800062ee:	0207c863          	bltz	a5,8000631e <vsnprintf+0x1c8>
    800062f2:	00170b13          	addi	s6,a4,1
    800062f6:	00fb06b3          	add	a3,s6,a5
    800062fa:	00b6fb63          	bgeu	a3,a1,80006310 <vsnprintf+0x1ba>
    800062fe:	02a866b3          	rem	a3,a6,a0
    80006302:	00f70ab3          	add	s5,a4,a5
    80006306:	9af6                	add	s5,s5,t4
    80006308:	0306869b          	addiw	a3,a3,48
    8000630c:	00da8023          	sb	a3,0(s5)
    80006310:	17fd                	addi	a5,a5,-1
    80006312:	02079693          	slli	a3,a5,0x20
    80006316:	02a84833          	div	a6,a6,a0
    8000631a:	fc06dee3          	bgez	a3,800062f6 <vsnprintf+0x1a0>
    8000631e:	00164783          	lbu	a5,1(a2)
    80006322:	9722                	add	a4,a4,s0
    80006324:	8672                	mv	a2,t3
    80006326:	86c6                	mv	a3,a7
    80006328:	4401                	li	s0,0
    8000632a:	4a81                	li	s5,0
    8000632c:	4801                	li	a6,0
    8000632e:	e60799e3          	bnez	a5,800061a0 <vsnprintf+0x4a>
    80006332:	bd49                	j	800061c4 <vsnprintf+0x6e>
    80006334:	00170813          	addi	a6,a4,1
    80006338:	00b87763          	bgeu	a6,a1,80006346 <vsnprintf+0x1f0>
    8000633c:	429c                	lw	a5,0(a3)
    8000633e:	9776                	add	a4,a4,t4
    80006340:	06a1                	addi	a3,a3,8
    80006342:	00f70023          	sb	a5,0(a4)
    80006346:	00164783          	lbu	a5,1(a2)
    8000634a:	8742                	mv	a4,a6
    8000634c:	8672                	mv	a2,t3
    8000634e:	4a81                	li	s5,0
    80006350:	4801                	li	a6,0
    80006352:	e40797e3          	bnez	a5,800061a0 <vsnprintf+0x4a>
    80006356:	b5bd                	j	800061c4 <vsnprintf+0x6e>
    80006358:	00164783          	lbu	a5,1(a2)
    8000635c:	8672                	mv	a2,t3
    8000635e:	e40791e3          	bnez	a5,800061a0 <vsnprintf+0x4a>
    80006362:	b58d                	j	800061c4 <vsnprintf+0x6e>
    80006364:	00164783          	lbu	a5,1(a2)
    80006368:	4805                	li	a6,1
    8000636a:	8672                	mv	a2,t3
    8000636c:	e2079ae3          	bnez	a5,800061a0 <vsnprintf+0x4a>
    80006370:	bd91                	j	800061c4 <vsnprintf+0x6e>
    80006372:	9776                	add	a4,a4,t4
    80006374:	00070023          	sb	zero,0(a4)
    80006378:	bdb1                	j	800061d4 <vsnprintf+0x7e>
    8000637a:	f839                	bnez	s0,800062d0 <vsnprintf+0x17a>
    8000637c:	0006a803          	lw	a6,0(a3)
    80006380:	f4085ce3          	bgez	a6,800062d8 <vsnprintf+0x182>
    80006384:	00170793          	addi	a5,a4,1
    80006388:	41000833          	neg	a6,a6
    8000638c:	02b7f363          	bgeu	a5,a1,800063b2 <vsnprintf+0x25c>
    80006390:	9776                	add	a4,a4,t4
    80006392:	01470023          	sb	s4,0(a4)
    80006396:	873e                	mv	a4,a5
    80006398:	b781                	j	800062d8 <vsnprintf+0x182>
    8000639a:	0006bc03          	ld	s8,0(a3)
    8000639e:	4bbd                	li	s7,15
    800063a0:	86be                	mv	a3,a5
    800063a2:	b5bd                	j	80006210 <vsnprintf+0xba>
    800063a4:	00264783          	lbu	a5,2(a2)
    800063a8:	8442                	mv	s0,a6
    800063aa:	0609                	addi	a2,a2,2
    800063ac:	de079ae3          	bnez	a5,800061a0 <vsnprintf+0x4a>
    800063b0:	bd11                	j	800061c4 <vsnprintf+0x6e>
    800063b2:	873e                	mv	a4,a5
    800063b4:	b715                	j	800062d8 <vsnprintf+0x182>
    800063b6:	4701                	li	a4,0
    800063b8:	4501                	li	a0,0
    800063ba:	02b77163          	bgeu	a4,a1,800063dc <vsnprintf+0x286>
    800063be:	9776                	add	a4,a4,t4
    800063c0:	00070023          	sb	zero,0(a4)
    800063c4:	8082                	ret
    800063c6:	4405                	li	s0,1
    800063c8:	4781                	li	a5,0
    800063ca:	b725                	j	800062f2 <vsnprintf+0x19c>
    800063cc:	00164783          	lbu	a5,1(a2)
    800063d0:	4a81                	li	s5,0
    800063d2:	8672                	mv	a2,t3
    800063d4:	4801                	li	a6,0
    800063d6:	dc0795e3          	bnez	a5,800061a0 <vsnprintf+0x4a>
    800063da:	b3ed                	j	800061c4 <vsnprintf+0x6e>
    800063dc:	c589                	beqz	a1,800063e6 <vsnprintf+0x290>
    800063de:	95f6                	add	a1,a1,t4
    800063e0:	fe058fa3          	sb	zero,-1(a1)
    800063e4:	8082                	ret
    800063e6:	8082                	ret

00000000800063e8 <snprintf>:
    800063e8:	715d                	addi	sp,sp,-80
    800063ea:	02810313          	addi	t1,sp,40
    800063ee:	f436                	sd	a3,40(sp)
    800063f0:	869a                	mv	a3,t1
    800063f2:	ec06                	sd	ra,24(sp)
    800063f4:	f83a                	sd	a4,48(sp)
    800063f6:	fc3e                	sd	a5,56(sp)
    800063f8:	e0c2                	sd	a6,64(sp)
    800063fa:	e4c6                	sd	a7,72(sp)
    800063fc:	e41a                	sd	t1,8(sp)
    800063fe:	d59ff0ef          	jal	ra,80006156 <vsnprintf>
    80006402:	60e2                	ld	ra,24(sp)
    80006404:	6161                	addi	sp,sp,80
    80006406:	8082                	ret

0000000080006408 <memcpy>:
    80006408:	00b567b3          	or	a5,a0,a1
    8000640c:	0077f713          	andi	a4,a5,7
    80006410:	87aa                	mv	a5,a0
    80006412:	e705                	bnez	a4,8000643a <memcpy+0x32>
    80006414:	ff960813          	addi	a6,a2,-7
    80006418:	982a                	add	a6,a6,a0
    8000641a:	03057063          	bgeu	a0,a6,8000643a <memcpy+0x32>
    8000641e:	872e                	mv	a4,a1
    80006420:	6314                	ld	a3,0(a4)
    80006422:	07a1                	addi	a5,a5,8
    80006424:	0721                	addi	a4,a4,8
    80006426:	fed7bc23          	sd	a3,-8(a5)
    8000642a:	ff07ebe3          	bltu	a5,a6,80006420 <memcpy+0x18>
    8000642e:	ff860793          	addi	a5,a2,-8
    80006432:	9be1                	andi	a5,a5,-8
    80006434:	07a1                	addi	a5,a5,8
    80006436:	95be                	add	a1,a1,a5
    80006438:	97aa                	add	a5,a5,a0
    8000643a:	962a                	add	a2,a2,a0
    8000643c:	00c7fd63          	bgeu	a5,a2,80006456 <memcpy+0x4e>
    80006440:	8e1d                	sub	a2,a2,a5
    80006442:	00c58733          	add	a4,a1,a2
    80006446:	0005c683          	lbu	a3,0(a1)
    8000644a:	0585                	addi	a1,a1,1
    8000644c:	0785                	addi	a5,a5,1
    8000644e:	fed78fa3          	sb	a3,-1(a5)
    80006452:	fee59ae3          	bne	a1,a4,80006446 <memcpy+0x3e>
    80006456:	8082                	ret

0000000080006458 <memset>:
    80006458:	00c567b3          	or	a5,a0,a2
    8000645c:	8b9d                	andi	a5,a5,7
    8000645e:	962a                	add	a2,a2,a0
    80006460:	0ff5f593          	andi	a1,a1,255
    80006464:	cb91                	beqz	a5,80006478 <memset+0x20>
    80006466:	87aa                	mv	a5,a0
    80006468:	02c57a63          	bgeu	a0,a2,8000649c <memset+0x44>
    8000646c:	0785                	addi	a5,a5,1
    8000646e:	feb78fa3          	sb	a1,-1(a5)
    80006472:	fef61de3          	bne	a2,a5,8000646c <memset+0x14>
    80006476:	8082                	ret
    80006478:	00859793          	slli	a5,a1,0x8
    8000647c:	8ddd                	or	a1,a1,a5
    8000647e:	01059793          	slli	a5,a1,0x10
    80006482:	8fcd                	or	a5,a5,a1
    80006484:	02079593          	slli	a1,a5,0x20
    80006488:	8ddd                	or	a1,a1,a5
    8000648a:	fec576e3          	bgeu	a0,a2,80006476 <memset+0x1e>
    8000648e:	87aa                	mv	a5,a0
    80006490:	07a1                	addi	a5,a5,8
    80006492:	feb7bc23          	sd	a1,-8(a5)
    80006496:	fec7ede3          	bltu	a5,a2,80006490 <memset+0x38>
    8000649a:	8082                	ret
    8000649c:	8082                	ret

000000008000649e <strlen>:
    8000649e:	00054783          	lbu	a5,0(a0)
    800064a2:	cb89                	beqz	a5,800064b4 <strlen+0x16>
    800064a4:	87aa                	mv	a5,a0
    800064a6:	0017c703          	lbu	a4,1(a5)
    800064aa:	0785                	addi	a5,a5,1
    800064ac:	ff6d                	bnez	a4,800064a6 <strlen+0x8>
    800064ae:	40a78533          	sub	a0,a5,a0
    800064b2:	8082                	ret
    800064b4:	4501                	li	a0,0
    800064b6:	8082                	ret

00000000800064b8 <strcmp>:
    800064b8:	00054783          	lbu	a5,0(a0)
    800064bc:	0585                	addi	a1,a1,1
    800064be:	0505                	addi	a0,a0,1
    800064c0:	fff5c703          	lbu	a4,-1(a1)
    800064c4:	c799                	beqz	a5,800064d2 <strcmp+0x1a>
    800064c6:	fee789e3          	beq	a5,a4,800064b8 <strcmp>
    800064ca:	0007851b          	sext.w	a0,a5
    800064ce:	9d19                	subw	a0,a0,a4
    800064d0:	8082                	ret
    800064d2:	4501                	li	a0,0
    800064d4:	bfed                	j	800064ce <strcmp+0x16>

00000000800064d6 <strcpy>:
    800064d6:	87aa                	mv	a5,a0
    800064d8:	0005c703          	lbu	a4,0(a1)
    800064dc:	0785                	addi	a5,a5,1
    800064de:	0585                	addi	a1,a1,1
    800064e0:	fee78fa3          	sb	a4,-1(a5)
    800064e4:	fb75                	bnez	a4,800064d8 <strcpy+0x2>
    800064e6:	8082                	ret

00000000800064e8 <atol>:
    800064e8:	00054703          	lbu	a4,0(a0)
    800064ec:	02000693          	li	a3,32
    800064f0:	87aa                	mv	a5,a0
    800064f2:	00d71763          	bne	a4,a3,80006500 <atol+0x18>
    800064f6:	0017c703          	lbu	a4,1(a5)
    800064fa:	0785                	addi	a5,a5,1
    800064fc:	fed70de3          	beq	a4,a3,800064f6 <atol+0xe>
    80006500:	02d00693          	li	a3,45
    80006504:	04d70163          	beq	a4,a3,80006546 <atol+0x5e>
    80006508:	02b00693          	li	a3,43
    8000650c:	02d70663          	beq	a4,a3,80006538 <atol+0x50>
    80006510:	0007c683          	lbu	a3,0(a5)
    80006514:	4581                	li	a1,0
    80006516:	c695                	beqz	a3,80006542 <atol+0x5a>
    80006518:	4501                	li	a0,0
    8000651a:	0785                	addi	a5,a5,1
    8000651c:	fd06861b          	addiw	a2,a3,-48
    80006520:	00251713          	slli	a4,a0,0x2
    80006524:	0007c683          	lbu	a3,0(a5)
    80006528:	953a                	add	a0,a0,a4
    8000652a:	0506                	slli	a0,a0,0x1
    8000652c:	9532                	add	a0,a0,a2
    8000652e:	f6f5                	bnez	a3,8000651a <atol+0x32>
    80006530:	c991                	beqz	a1,80006544 <atol+0x5c>
    80006532:	40a00533          	neg	a0,a0
    80006536:	8082                	ret
    80006538:	0017c683          	lbu	a3,1(a5)
    8000653c:	4581                	li	a1,0
    8000653e:	0785                	addi	a5,a5,1
    80006540:	fee1                	bnez	a3,80006518 <atol+0x30>
    80006542:	4501                	li	a0,0
    80006544:	8082                	ret
    80006546:	0017c683          	lbu	a3,1(a5)
    8000654a:	4585                	li	a1,1
    8000654c:	0785                	addi	a5,a5,1
    8000654e:	f6e9                	bnez	a3,80006518 <atol+0x30>
    80006550:	4501                	li	a0,0
    80006552:	bfcd                	j	80006544 <atol+0x5c>
